---
triple:          'arm64-apple-darwin'
binary-path:     '/Users/renata/Documents/leetcode/leetcode/backtracking/51'
relocations:
  - { offsetInCU: 0x3F, offset: 0x3F, size: 0x8, addend: 0x0, symName: _res, symObjAddr: 0x5D290, symBinAddr: 0x100010000, symSize: 0x0 }
  - { offsetInCU: 0x917E, offset: 0x917E, size: 0x8, addend: 0x0, symName: __ZNSt3__113__fill_n_trueB8ue170006INS_6vectorIbNS_9allocatorIbEEEEEEvNS_14__bit_iteratorIT_Lb0EXLi0EEEENS6_9size_typeE, symObjAddr: 0x6758, symBinAddr: 0x1000092A4, symSize: 0x160 }
  - { offsetInCU: 0x9243, offset: 0x9243, size: 0x8, addend: 0x0, symName: __ZNSt3__114__fill_n_falseB8ue170006INS_6vectorIbNS_9allocatorIbEEEEEEvNS_14__bit_iteratorIT_Lb0EXLi0EEEENS6_9size_typeE, symObjAddr: 0x68B8, symBinAddr: 0x100009404, symSize: 0x15C }
  - { offsetInCU: 0x9517, offset: 0x9517, size: 0x8, addend: 0x0, symName: __ZNSt3__124__put_character_sequenceB8ue170006IcNS_11char_traitsIcEEEERNS_13basic_ostreamIT_T0_EES7_PKS4_m, symObjAddr: 0x7D00, symBinAddr: 0x10000A84C, symSize: 0x1EC }
  - { offsetInCU: 0xB27B, offset: 0xB27B, size: 0x8, addend: 0x0, symName: __ZNSt3__1neB8ue170006IPNS_6vectorIbNS_9allocatorIbEEEEEEbRKNS_11__wrap_iterIT_EESA_, symObjAddr: 0x6C4, symBinAddr: 0x100003210, symSize: 0x34 }
  - { offsetInCU: 0xB2BE, offset: 0xB2BE, size: 0x8, addend: 0x0, symName: __ZNSt3__1neB8ue170006ERKNS_14__bit_iteratorINS_6vectorIbNS_9allocatorIbEEEELb0ELm0EEES7_, symObjAddr: 0x7D8, symBinAddr: 0x100003324, symSize: 0x34 }
  - { offsetInCU: 0xB2FB, offset: 0xB2FB, size: 0x8, addend: 0x0, symName: __ZNSt3__1neB8ue170006IPNS_6vectorINS_12basic_stringIcNS_11char_traitsIcEENS_9allocatorIcEEEENS5_IS7_EEEEEEbRKNS_11__wrap_iterIT_EESF_, symObjAddr: 0xF88, symBinAddr: 0x100003AD4, symSize: 0x34 }
  - { offsetInCU: 0xB33E, offset: 0xB33E, size: 0x8, addend: 0x0, symName: __ZNSt3__1neB8ue170006IPNS_12basic_stringIcNS_11char_traitsIcEENS_9allocatorIcEEEEEEbRKNS_11__wrap_iterIT_EESC_, symObjAddr: 0x1068, symBinAddr: 0x100003BB4, symSize: 0x34 }
  - { offsetInCU: 0xB381, offset: 0xB381, size: 0x8, addend: 0x0, symName: __ZNSt3__1lsB8ue170006IcNS_11char_traitsIcEENS_9allocatorIcEEEERNS_13basic_ostreamIT_T0_EES9_RKNS_12basic_stringIS6_S7_T1_EE, symObjAddr: 0x10B4, symBinAddr: 0x100003C00, symSize: 0x4C }
  - { offsetInCU: 0xB3D9, offset: 0xB3D9, size: 0x8, addend: 0x0, symName: __ZNSt3__14endlB8ue170006IcNS_11char_traitsIcEEEERNS_13basic_ostreamIT_T0_EES7_, symObjAddr: 0x114C, symBinAddr: 0x100003C98, symSize: 0x58 }
  - { offsetInCU: 0xB419, offset: 0xB419, size: 0x8, addend: 0x0, symName: __ZNSt3__1eqB8ue170006IPNS_6vectorIbNS_9allocatorIbEEEEEEbRKNS_11__wrap_iterIT_EESA_, symObjAddr: 0x11C4, symBinAddr: 0x100003D10, symSize: 0x48 }
  - { offsetInCU: 0xB45C, offset: 0xB45C, size: 0x8, addend: 0x0, symName: __ZNSt3__1eqB8ue170006IPNS_6vectorINS_12basic_stringIcNS_11char_traitsIcEENS_9allocatorIcEEEENS5_IS7_EEEEEEbRKNS_11__wrap_iterIT_EESF_, symObjAddr: 0x1224, symBinAddr: 0x100003D70, symSize: 0x48 }
  - { offsetInCU: 0xB49F, offset: 0xB49F, size: 0x8, addend: 0x0, symName: __ZNSt3__1eqB8ue170006IPNS_12basic_stringIcNS_11char_traitsIcEENS_9allocatorIcEEEEEEbRKNS_11__wrap_iterIT_EESC_, symObjAddr: 0x1284, symBinAddr: 0x100003DD0, symSize: 0x48 }
  - { offsetInCU: 0xB4E2, offset: 0xB4E2, size: 0x8, addend: 0x0, symName: __ZNSt3__112__to_addressB8ue170006INS_6vectorINS_12basic_stringIcNS_11char_traitsIcEENS_9allocatorIcEEEENS5_IS7_EEEEEEPT_SB_, symObjAddr: 0x17B8, symBinAddr: 0x100004304, symSize: 0x14 }
  - { offsetInCU: 0xB517, offset: 0xB517, size: 0x8, addend: 0x0, symName: __ZNSt3__119__libcpp_deallocateB8ue170006EPvmm, symObjAddr: 0x18A8, symBinAddr: 0x1000043F4, symSize: 0x30 }
  - { offsetInCU: 0xB55F, offset: 0xB55F, size: 0x8, addend: 0x0, symName: __ZNSt3__127__do_deallocate_handle_sizeB8ue170006IJEEEvPvmDpT_, symObjAddr: 0x18D8, symBinAddr: 0x100004424, symSize: 0x28 }
  - { offsetInCU: 0xB59D, offset: 0xB59D, size: 0x8, addend: 0x0, symName: __ZNSt3__124__libcpp_operator_deleteB8ue170006IJPvEEEvDpT_, symObjAddr: 0x1900, symBinAddr: 0x10000444C, symSize: 0x24 }
  - { offsetInCU: 0xB5D2, offset: 0xB5D2, size: 0x8, addend: 0x0, symName: __ZNSt3__112__to_addressB8ue170006INS_12basic_stringIcNS_11char_traitsIcEENS_9allocatorIcEEEEEEPT_S8_, symObjAddr: 0x1E84, symBinAddr: 0x1000049D0, symSize: 0x14 }
  - { offsetInCU: 0xB607, offset: 0xB607, size: 0x8, addend: 0x0, symName: __ZNSt3__119__allocate_at_leastB8ue170006INS_9allocatorImEEEENS_19__allocation_resultINS_16allocator_traitsIT_E7pointerEEERS5_m, symObjAddr: 0x257C, symBinAddr: 0x1000050C8, symSize: 0x40 }
  - { offsetInCU: 0xB84C, offset: 0xB84C, size: 0x8, addend: 0x0, symName: __ZNSt3__120__throw_length_errorB8ue170006EPKc, symObjAddr: 0x269C, symBinAddr: 0x1000051E8, symSize: 0x64 }
  - { offsetInCU: 0xB876, offset: 0xB876, size: 0x8, addend: 0x0, symName: __ZNSt3__117__libcpp_allocateB8ue170006Emm, symObjAddr: 0x280C, symBinAddr: 0x100005358, symSize: 0x28 }
  - { offsetInCU: 0xB8B3, offset: 0xB8B3, size: 0x8, addend: 0x0, symName: __ZNSt3__121__libcpp_operator_newB8ue170006IJmEEEPvDpT_, symObjAddr: 0x2834, symBinAddr: 0x100005380, symSize: 0x24 }
  - { offsetInCU: 0xB8EC, offset: 0xB8EC, size: 0x8, addend: 0x0, symName: __ZNSt3__16__copyB8ue170006INS_17_ClassicAlgPolicyENS_14__bit_iteratorINS_6vectorIbNS_9allocatorIbEEEELb1ELm0EEES7_NS2_IS6_Lb0ELm0EEEEENS_4pairIT0_T2_EESA_T1_SB_, symObjAddr: 0x28C8, symBinAddr: 0x100005414, symSize: 0x7C }
  - { offsetInCU: 0xB959, offset: 0xB959, size: 0x8, addend: 0x0, symName: __ZNSt3__123__dispatch_copy_or_moveB8ue170006INS_17_ClassicAlgPolicyENS_11__copy_loopIS1_EENS_14__copy_trivialENS_14__bit_iteratorINS_6vectorIbNS_9allocatorIbEEEELb1ELm0EEESA_NS5_IS9_Lb0ELm0EEEEENS_4pairIT2_T4_EESD_T3_SE_, symObjAddr: 0x29A8, symBinAddr: 0x1000054F4, symSize: 0x7C }
  - { offsetInCU: 0xB9D8, offset: 0xB9D8, size: 0x8, addend: 0x0, symName: __ZNSt3__121__unwrap_and_dispatchB8ue170006INS_10__overloadINS_11__copy_loopINS_17_ClassicAlgPolicyEEENS_14__copy_trivialEEENS_14__bit_iteratorINS_6vectorIbNS_9allocatorIbEEEELb1ELm0EEESC_NS7_ISB_Lb0ELm0EEELi0EEENS_4pairIT0_T2_EESF_T1_SG_, symObjAddr: 0x2A58, symBinAddr: 0x1000055A4, symSize: 0x150 }
  - { offsetInCU: 0xBA69, offset: 0xBA69, size: 0x8, addend: 0x0, symName: __ZNSt3__114__unwrap_rangeB8ue170006INS_14__bit_iteratorINS_6vectorIbNS_9allocatorIbEEEELb1ELm0EEES6_EENS_4pairIT0_S8_EET_SA_, symObjAddr: 0x2BA8, symBinAddr: 0x1000056F4, symSize: 0x84 }
  - { offsetInCU: 0xBBE4, offset: 0xBBE4, size: 0x8, addend: 0x0, symName: __ZNSt3__113__unwrap_iterB8ue170006INS_14__bit_iteratorINS_6vectorIbNS_9allocatorIbEEEELb0ELm0EEENS_18__unwrap_iter_implIS6_Lb0EEELi0EEEDTclsrT0_8__unwrapclsr3stdE7declvalIT_EEEESA_, symObjAddr: 0x2CF0, symBinAddr: 0x10000583C, symSize: 0x44 }
  - { offsetInCU: 0xBC29, offset: 0xBC29, size: 0x8, addend: 0x0, symName: __ZNSt3__19make_pairB8ue170006INS_14__bit_iteratorINS_6vectorIbNS_9allocatorIbEEEELb1ELm0EEENS1_IS5_Lb0ELm0EEEEENS_4pairINS_18__unwrap_ref_decayIT_E4typeENS9_IT0_E4typeEEEOSA_OSD_, symObjAddr: 0x2D34, symBinAddr: 0x100005880, symSize: 0x40 }
  - { offsetInCU: 0xBC78, offset: 0xBC78, size: 0x8, addend: 0x0, symName: __ZNSt3__114__rewrap_rangeB8ue170006INS_14__bit_iteratorINS_6vectorIbNS_9allocatorIbEEEELb1ELm0EEES6_EET_S7_T0_, symObjAddr: 0x2D74, symBinAddr: 0x1000058C0, symSize: 0x5C }
  - { offsetInCU: 0xBCC4, offset: 0xBCC4, size: 0x8, addend: 0x0, symName: __ZNSt3__113__rewrap_iterB8ue170006INS_14__bit_iteratorINS_6vectorIbNS_9allocatorIbEEEELb0ELm0EEES6_NS_18__unwrap_iter_implIS6_Lb0EEEEET_S9_T0_, symObjAddr: 0x2DD0, symBinAddr: 0x10000591C, symSize: 0x74 }
  - { offsetInCU: 0xBD1B, offset: 0xBD1B, size: 0x8, addend: 0x0, symName: __ZNSt3__19make_pairB8ue170006INS_14__bit_iteratorINS_6vectorIbNS_9allocatorIbEEEELb1ELm0EEES6_EENS_4pairINS_18__unwrap_ref_decayIT_E4typeENS8_IT0_E4typeEEEOS9_OSC_, symObjAddr: 0x2E44, symBinAddr: 0x100005990, symSize: 0x38 }
  - { offsetInCU: 0xBD6A, offset: 0xBD6A, size: 0x8, addend: 0x0, symName: __ZNSt3__113__unwrap_iterB8ue170006INS_14__bit_iteratorINS_6vectorIbNS_9allocatorIbEEEELb1ELm0EEENS_18__unwrap_iter_implIS6_Lb0EEELi0EEEDTclsrT0_8__unwrapclsr3stdE7declvalIT_EEEESA_, symObjAddr: 0x2E7C, symBinAddr: 0x1000059C8, symSize: 0x44 }
  - { offsetInCU: 0xBECA, offset: 0xBECA, size: 0x8, addend: 0x0, symName: __ZNSt3__1neB8ue170006ERKNS_14__bit_iteratorINS_6vectorIbNS_9allocatorIbEEEELb1ELm0EEES7_, symObjAddr: 0x2F54, symBinAddr: 0x100005AA0, symSize: 0x34 }
  - { offsetInCU: 0xBF07, offset: 0xBF07, size: 0x8, addend: 0x0, symName: __ZNSt3__1eqB8ue170006ERKNS_14__bit_iteratorINS_6vectorIbNS_9allocatorIbEEEELb1ELm0EEES7_, symObjAddr: 0x3054, symBinAddr: 0x100005BA0, symSize: 0x64 }
  - { offsetInCU: 0xBF8C, offset: 0xBF8C, size: 0x8, addend: 0x0, symName: __ZNSt3__113__rewrap_iterB8ue170006INS_14__bit_iteratorINS_6vectorIbNS_9allocatorIbEEEELb1ELm0EEES6_NS_18__unwrap_iter_implIS6_Lb0EEEEET_S9_T0_, symObjAddr: 0x31DC, symBinAddr: 0x100005D28, symSize: 0x74 }
  - { offsetInCU: 0xBFE1, offset: 0xBFE1, size: 0x8, addend: 0x0, symName: __ZNSt3__118__constexpr_strlenB8ue170006EPKc, symObjAddr: 0x3720, symBinAddr: 0x10000626C, symSize: 0x24 }
  - { offsetInCU: 0xC00D, offset: 0xC00D, size: 0x8, addend: 0x0, symName: __ZNSt3__1eqB8ue170006ERKNS_14__bit_iteratorINS_6vectorIbNS_9allocatorIbEEEELb0ELm0EEES7_, symObjAddr: 0x3744, symBinAddr: 0x100006290, symSize: 0x64 }
  - { offsetInCU: 0xC04A, offset: 0xC04A, size: 0x8, addend: 0x0, symName: __ZNSt3__13maxB8ue170006ImEERKT_S3_S3_, symObjAddr: 0x3DC0, symBinAddr: 0x10000690C, symSize: 0x2C }
  - { offsetInCU: 0xC08D, offset: 0xC08D, size: 0x8, addend: 0x0, symName: __ZNSt3__13minB8ue170006ImEERKT_S3_S3_, symObjAddr: 0x3DEC, symBinAddr: 0x100006938, symSize: 0x2C }
  - { offsetInCU: 0xC2D1, offset: 0xC2D1, size: 0x8, addend: 0x0, symName: __ZNSt3__13minB8ue170006ImNS_6__lessIvvEEEERKT_S5_S5_T0_, symObjAddr: 0x3E78, symBinAddr: 0x1000069C4, symSize: 0x54 }
  - { offsetInCU: 0xC370, offset: 0xC370, size: 0x8, addend: 0x0, symName: __ZNSt3__13maxB8ue170006ImNS_6__lessIvvEEEERKT_S5_S5_T0_, symObjAddr: 0x3F58, symBinAddr: 0x100006AA4, symSize: 0x54 }
  - { offsetInCU: 0xC3CA, offset: 0xC3CA, size: 0x8, addend: 0x0, symName: __ZNSt3__119__allocate_at_leastB8ue170006INS_9allocatorINS_12basic_stringIcNS_11char_traitsIcEENS1_IcEEEEEEEENS_19__allocation_resultINS_16allocator_traitsIT_E7pointerEEERSA_m, symObjAddr: 0x40C8, symBinAddr: 0x100006C14, symSize: 0x40 }
  - { offsetInCU: 0xC40D, offset: 0xC40D, size: 0x8, addend: 0x0, symName: __ZNSt3__142__uninitialized_allocator_move_if_noexceptB8ue170006INS_9allocatorINS_12basic_stringIcNS_11char_traitsIcEENS1_IcEEEEEENS_16reverse_iteratorIPS6_EESA_SA_EET2_RT_T0_T1_SB_, symObjAddr: 0x4280, symBinAddr: 0x100006DCC, symSize: 0x12C }
  - { offsetInCU: 0xC4AD, offset: 0xC4AD, size: 0x8, addend: 0x0, symName: __ZNSt3__14swapB8ue170006IPNS_12basic_stringIcNS_11char_traitsIcEENS_9allocatorIcEEEEEENS_9enable_ifIXaasr21is_move_constructibleIT_EE5valuesr18is_move_assignableIS9_EE5valueEvE4typeERS9_SC_, symObjAddr: 0x43F8, symBinAddr: 0x100006F44, symSize: 0x3C }
  - { offsetInCU: 0xC4FE, offset: 0xC4FE, size: 0x8, addend: 0x0, symName: __ZNSt3__122__make_exception_guardB8ue170006INS_29_AllocatorDestroyRangeReverseINS_9allocatorINS_12basic_stringIcNS_11char_traitsIcEENS2_IcEEEEEENS_16reverse_iteratorIPS7_EEEEEENS_28__exception_guard_exceptionsIT_EESE_, symObjAddr: 0x44FC, symBinAddr: 0x100007048, symSize: 0x4C }
  - { offsetInCU: 0xC534, offset: 0xC534, size: 0x8, addend: 0x0, symName: __ZNSt3__1neB8ue170006IPNS_12basic_stringIcNS_11char_traitsIcEENS_9allocatorIcEEEES7_EEbRKNS_16reverse_iteratorIT_EERKNS8_IT0_EE, symObjAddr: 0x458C, symBinAddr: 0x1000070D8, symSize: 0x48 }
  - { offsetInCU: 0xC580, offset: 0xC580, size: 0x8, addend: 0x0, symName: __ZNSt3__112__to_addressB8ue170006INS_16reverse_iteratorIPNS_12basic_stringIcNS_11char_traitsIcEENS_9allocatorIcEEEEEEvEEu7__decayIDTclsr19__to_address_helperIT_EE6__callclsr3stdE7declvalIRKSA_EEEEESC_, symObjAddr: 0x4608, symBinAddr: 0x100007154, symSize: 0x24 }
  - { offsetInCU: 0xC5DF, offset: 0xC5DF, size: 0x8, addend: 0x0, symName: __ZNSt3__119__allocator_destroyB8ue170006INS_9allocatorINS_12basic_stringIcNS_11char_traitsIcEENS1_IcEEEEEENS_16reverse_iteratorINS8_IPS6_EEEESB_EEvRT_T0_T1_, symObjAddr: 0x49E4, symBinAddr: 0x100007530, symSize: 0x70 }
  - { offsetInCU: 0xC644, offset: 0xC644, size: 0x8, addend: 0x0, symName: __ZNSt3__1neB8ue170006INS_16reverse_iteratorIPNS_12basic_stringIcNS_11char_traitsIcEENS_9allocatorIcEEEEEES9_EEbRKNS1_IT_EERKNS1_IT0_EE, symObjAddr: 0x4A90, symBinAddr: 0x1000075DC, symSize: 0x60 }
  - { offsetInCU: 0xC690, offset: 0xC690, size: 0x8, addend: 0x0, symName: __ZNSt3__112__to_addressB8ue170006INS_16reverse_iteratorINS1_IPNS_12basic_stringIcNS_11char_traitsIcEENS_9allocatorIcEEEEEEEEvEEu7__decayIDTclsr19__to_address_helperIT_EE6__callclsr3stdE7declvalIRKSB_EEEEESD_, symObjAddr: 0x4AF0, symBinAddr: 0x10000763C, symSize: 0x24 }
  - { offsetInCU: 0xC6EF, offset: 0xC6EF, size: 0x8, addend: 0x0, symName: __ZNSt3__119__allocate_at_leastB8ue170006INS_9allocatorINS_6vectorINS_12basic_stringIcNS_11char_traitsIcEENS1_IcEEEENS1_IS7_EEEEEEEENS_19__allocation_resultINS_16allocator_traitsIT_E7pointerEEERSD_m, symObjAddr: 0x55C0, symBinAddr: 0x10000810C, symSize: 0x40 }
  - { offsetInCU: 0xC732, offset: 0xC732, size: 0x8, addend: 0x0, symName: __ZNSt3__142__uninitialized_allocator_move_if_noexceptB8ue170006INS_9allocatorINS_6vectorINS_12basic_stringIcNS_11char_traitsIcEENS1_IcEEEENS1_IS7_EEEEEENS_16reverse_iteratorIPS9_EESD_SD_EET2_RT_T0_T1_SE_, symObjAddr: 0x5778, symBinAddr: 0x1000082C4, symSize: 0x12C }
  - { offsetInCU: 0xC7D2, offset: 0xC7D2, size: 0x8, addend: 0x0, symName: __ZNSt3__14swapB8ue170006IPNS_6vectorINS_12basic_stringIcNS_11char_traitsIcEENS_9allocatorIcEEEENS5_IS7_EEEEEENS_9enable_ifIXaasr21is_move_constructibleIT_EE5valuesr18is_move_assignableISC_EE5valueEvE4typeERSC_SF_, symObjAddr: 0x58F0, symBinAddr: 0x10000843C, symSize: 0x3C }
  - { offsetInCU: 0xC823, offset: 0xC823, size: 0x8, addend: 0x0, symName: __ZNSt3__122__make_exception_guardB8ue170006INS_29_AllocatorDestroyRangeReverseINS_9allocatorINS_6vectorINS_12basic_stringIcNS_11char_traitsIcEENS2_IcEEEENS2_IS8_EEEEEENS_16reverse_iteratorIPSA_EEEEEENS_28__exception_guard_exceptionsIT_EESH_, symObjAddr: 0x59F4, symBinAddr: 0x100008540, symSize: 0x4C }
  - { offsetInCU: 0xC859, offset: 0xC859, size: 0x8, addend: 0x0, symName: __ZNSt3__1neB8ue170006IPNS_6vectorINS_12basic_stringIcNS_11char_traitsIcEENS_9allocatorIcEEEENS5_IS7_EEEESA_EEbRKNS_16reverse_iteratorIT_EERKNSB_IT0_EE, symObjAddr: 0x5A84, symBinAddr: 0x1000085D0, symSize: 0x48 }
  - { offsetInCU: 0xC8A5, offset: 0xC8A5, size: 0x8, addend: 0x0, symName: __ZNSt3__112__to_addressB8ue170006INS_16reverse_iteratorIPNS_6vectorINS_12basic_stringIcNS_11char_traitsIcEENS_9allocatorIcEEEENS6_IS8_EEEEEEvEEu7__decayIDTclsr19__to_address_helperIT_EE6__callclsr3stdE7declvalIRKSD_EEEEESF_, symObjAddr: 0x5B00, symBinAddr: 0x10000864C, symSize: 0x24 }
  - { offsetInCU: 0xC904, offset: 0xC904, size: 0x8, addend: 0x0, symName: __ZNSt3__119__allocator_destroyB8ue170006INS_9allocatorINS_6vectorINS_12basic_stringIcNS_11char_traitsIcEENS1_IcEEEENS1_IS7_EEEEEENS_16reverse_iteratorINSB_IPS9_EEEESE_EEvRT_T0_T1_, symObjAddr: 0x5F70, symBinAddr: 0x100008ABC, symSize: 0x70 }
  - { offsetInCU: 0xC969, offset: 0xC969, size: 0x8, addend: 0x0, symName: __ZNSt3__1neB8ue170006INS_16reverse_iteratorIPNS_6vectorINS_12basic_stringIcNS_11char_traitsIcEENS_9allocatorIcEEEENS6_IS8_EEEEEESC_EEbRKNS1_IT_EERKNS1_IT0_EE, symObjAddr: 0x601C, symBinAddr: 0x100008B68, symSize: 0x60 }
  - { offsetInCU: 0xC9B5, offset: 0xC9B5, size: 0x8, addend: 0x0, symName: __ZNSt3__112__to_addressB8ue170006INS_16reverse_iteratorINS1_IPNS_6vectorINS_12basic_stringIcNS_11char_traitsIcEENS_9allocatorIcEEEENS6_IS8_EEEEEEEEvEEu7__decayIDTclsr19__to_address_helperIT_EE6__callclsr3stdE7declvalIRKSE_EEEEESG_, symObjAddr: 0x607C, symBinAddr: 0x100008BC8, symSize: 0x24 }
  - { offsetInCU: 0xCA14, offset: 0xCA14, size: 0x8, addend: 0x0, symName: __ZNSt3__16fill_nB8ue170006INS_6vectorIbNS_9allocatorIbEEEEEEvNS_14__bit_iteratorIT_Lb0EXLi0EEEENS6_9size_typeEb, symObjAddr: 0x66C4, symBinAddr: 0x100009210, symSize: 0x94 }
  - { offsetInCU: 0xCA66, offset: 0xCA66, size: 0x8, addend: 0x0, symName: __ZNSt3__16fill_nB8ue170006IPmmmEET_S2_T0_RKT1_, symObjAddr: 0x6A14, symBinAddr: 0x100009560, symSize: 0x44 }
  - { offsetInCU: 0xCAC9, offset: 0xCAC9, size: 0x8, addend: 0x0, symName: __ZNSt3__112__to_addressB8ue170006ImEEPT_S2_, symObjAddr: 0x6A58, symBinAddr: 0x1000095A4, symSize: 0x14 }
  - { offsetInCU: 0xCAFE, offset: 0xCAFE, size: 0x8, addend: 0x0, symName: __ZNSt3__18__fill_nB8ue170006IPmmmEET_S2_T0_RKT1_, symObjAddr: 0x6A6C, symBinAddr: 0x1000095B8, symSize: 0x64 }
  - { offsetInCU: 0xCB61, offset: 0xCB61, size: 0x8, addend: 0x0, symName: __ZNSt3__121__convert_to_integralB8ue170006Em, symObjAddr: 0x6AD0, symBinAddr: 0x10000961C, symSize: 0x14 }
  - { offsetInCU: 0xCB8D, offset: 0xCB8D, size: 0x8, addend: 0x0, symName: __ZNSt3__16fill_nB8ue170006IPmmiEET_S2_T0_RKT1_, symObjAddr: 0x6AE4, symBinAddr: 0x100009630, symSize: 0x44 }
  - { offsetInCU: 0xCBF0, offset: 0xCBF0, size: 0x8, addend: 0x0, symName: __ZNSt3__18__fill_nB8ue170006IPmmiEET_S2_T0_RKT1_, symObjAddr: 0x6B28, symBinAddr: 0x100009674, symSize: 0x64 }
  - { offsetInCU: 0xCC53, offset: 0xCC53, size: 0x8, addend: 0x0, symName: __ZNSt3__112__to_addressB8ue170006INS_6vectorIbNS_9allocatorIbEEEEEEPT_S6_, symObjAddr: 0x7054, symBinAddr: 0x100009BA0, symSize: 0x14 }
  - { offsetInCU: 0xCC88, offset: 0xCC88, size: 0x8, addend: 0x0, symName: __ZNSt3__122__make_exception_guardB8ue170006INS_6vectorINS_12basic_stringIcNS_11char_traitsIcEENS_9allocatorIcEEEENS5_IS7_EEE16__destroy_vectorEEENS_28__exception_guard_exceptionsIT_EESC_, symObjAddr: 0x73BC, symBinAddr: 0x100009F08, symSize: 0x40 }
  - { offsetInCU: 0xCCBD, offset: 0xCCBD, size: 0x8, addend: 0x0, symName: __ZNSt3__130__uninitialized_allocator_copyB8ue170006INS_9allocatorINS_12basic_stringIcNS_11char_traitsIcEENS1_IcEEEEEEPS6_S8_S8_EET2_RT_T0_T1_S9_, symObjAddr: 0x75DC, symBinAddr: 0x10000A128, symSize: 0x80 }
  - { offsetInCU: 0xCD5A, offset: 0xCD5A, size: 0x8, addend: 0x0, symName: __ZNSt3__114__unwrap_rangeB8ue170006IPNS_12basic_stringIcNS_11char_traitsIcEENS_9allocatorIcEEEES7_EENS_4pairIT0_S9_EET_SB_, symObjAddr: 0x765C, symBinAddr: 0x10000A1A8, symSize: 0x60 }
  - { offsetInCU: 0xCDA6, offset: 0xCDA6, size: 0x8, addend: 0x0, symName: __ZNSt3__135__uninitialized_allocator_copy_implB8ue170006INS_9allocatorINS_12basic_stringIcNS_11char_traitsIcEENS1_IcEEEEEEPS6_S8_S8_EET2_RT_T0_T1_S9_, symObjAddr: 0x76BC, symBinAddr: 0x10000A208, symSize: 0xF4 }
  - { offsetInCU: 0xCE44, offset: 0xCE44, size: 0x8, addend: 0x0, symName: __ZNSt3__113__unwrap_iterB8ue170006IPNS_12basic_stringIcNS_11char_traitsIcEENS_9allocatorIcEEEENS_18__unwrap_iter_implIS7_Lb1EEELi0EEEDTclsrT0_8__unwrapclsr3stdE7declvalIT_EEEESB_, symObjAddr: 0x77B0, symBinAddr: 0x10000A2FC, symSize: 0x24 }
  - { offsetInCU: 0xCE88, offset: 0xCE88, size: 0x8, addend: 0x0, symName: __ZNSt3__113__rewrap_iterB8ue170006IPNS_12basic_stringIcNS_11char_traitsIcEENS_9allocatorIcEEEES7_NS_18__unwrap_iter_implIS7_Lb1EEEEET_SA_T0_, symObjAddr: 0x77D4, symBinAddr: 0x10000A320, symSize: 0x3C }
  - { offsetInCU: 0xCEDD, offset: 0xCEDD, size: 0x8, addend: 0x0, symName: __ZNSt3__19make_pairB8ue170006IPNS_12basic_stringIcNS_11char_traitsIcEENS_9allocatorIcEEEES7_EENS_4pairINS_18__unwrap_ref_decayIT_E4typeENS9_IT0_E4typeEEEOSA_OSD_, symObjAddr: 0x7810, symBinAddr: 0x10000A35C, symSize: 0x38 }
  - { offsetInCU: 0xD000, offset: 0xD000, size: 0x8, addend: 0x0, symName: __ZNSt3__122__make_exception_guardB8ue170006INS_29_AllocatorDestroyRangeReverseINS_9allocatorINS_12basic_stringIcNS_11char_traitsIcEENS2_IcEEEEEEPS7_EEEENS_28__exception_guard_exceptionsIT_EESC_, symObjAddr: 0x78B8, symBinAddr: 0x10000A404, symSize: 0x4C }
  - { offsetInCU: 0xD036, offset: 0xD036, size: 0x8, addend: 0x0, symName: __ZNSt3__119__allocator_destroyB8ue170006INS_9allocatorINS_12basic_stringIcNS_11char_traitsIcEENS1_IcEEEEEENS_16reverse_iteratorIPS6_EESA_EEvRT_T0_T1_, symObjAddr: 0x7B48, symBinAddr: 0x10000A694, symSize: 0x70 }
  - { offsetInCU: 0xD0EC, offset: 0xD0EC, size: 0x8, addend: 0x0, symName: __ZNSt3__116__pad_and_outputB8ue170006IcNS_11char_traitsIcEEEENS_19ostreambuf_iteratorIT_T0_EES6_PKS4_S8_S8_RNS_8ios_baseES4_, symObjAddr: 0x7F84, symBinAddr: 0x10000AAD0, symSize: 0x240 }
  - { offsetInCU: 0xD1BB, offset: 0xD1BB, size: 0x8, addend: 0x0, symName: __ZNSt3__19use_facetB8ue170006INS_5ctypeIcEEEERKT_RKNS_6localeE, symObjAddr: 0x8510, symBinAddr: 0x10000B05C, symSize: 0x2C }
  - { offsetInCU: 0xD688, offset: 0xD688, size: 0x8, addend: 0x0, symName: __ZNSt3__112__to_addressB8ue170006IKcEEPT_S3_, symObjAddr: 0x85A8, symBinAddr: 0x10000B0F4, symSize: 0x14 }
  - { offsetInCU: 0xDB9C, offset: 0xDB9C, size: 0x8, addend: 0x0, symName: __ZSt28__throw_bad_array_new_lengthB8ue170006v, symObjAddr: 0x27D8, symBinAddr: 0x100005324, symSize: 0x34 }
  - { offsetInCU: 0xE098, offset: 0xE098, size: 0x8, addend: 0x0, symName: _n_num, symObjAddr: 0x5D2A8, symBinAddr: 0x100010018, symSize: 0x0 }
  - { offsetInCU: 0xE491, offset: 0xE491, size: 0x8, addend: 0x0, symName: __ZNSt3__16vectorINS_12basic_stringIcNS_11char_traitsIcEENS_9allocatorIcEEEENS4_IS6_EEE26__swap_out_circular_bufferERNS_14__split_bufferIS6_RS7_EE, symObjAddr: 0x3C08, symBinAddr: 0x100006754, symSize: 0x110 }
  - { offsetInCU: 0xE522, offset: 0xE522, size: 0x8, addend: 0x0, symName: __ZNSt3__16vectorINS0_INS_12basic_stringIcNS_11char_traitsIcEENS_9allocatorIcEEEENS4_IS6_EEEENS4_IS8_EEE26__swap_out_circular_bufferERNS_14__split_bufferIS8_RS9_EE, symObjAddr: 0x5250, symBinAddr: 0x100007D9C, symSize: 0x110 }
  - { offsetInCU: 0x109AC, offset: 0x109AC, size: 0x8, addend: 0x0, symName: __ZNSt3__16vectorINS0_INS_12basic_stringIcNS_11char_traitsIcEENS_9allocatorIcEEEENS4_IS6_EEEENS4_IS8_EEEC1B8ue170006Ev, symObjAddr: 0x0, symBinAddr: 0x100002B4C, symSize: 0x2C }
  - { offsetInCU: 0x109D5, offset: 0x109D5, size: 0x8, addend: 0x0, symName: __ZNSt3__16vectorINS0_INS_12basic_stringIcNS_11char_traitsIcEENS_9allocatorIcEEEENS4_IS6_EEEENS4_IS8_EEED1B8ue170006Ev, symObjAddr: 0x2C, symBinAddr: 0x100002B78, symSize: 0x2C }
  - { offsetInCU: 0x109FE, offset: 0x109FE, size: 0x8, addend: 0x0, symName: __Z16solveNQueensHelpiiRNSt3__16vectorIbNS_9allocatorIbEEEES4_S4_S4_RNS0_IS3_NS1_IS3_EEEERNS0_INS0_INS_12basic_stringIcNS_11char_traitsIcEENS1_IcEEEENS1_ISC_EEEENS1_ISE_EEEE, symObjAddr: 0x58, symBinAddr: 0x100002BA4, symSize: 0x5E0 }
  - { offsetInCU: 0x10B56, offset: 0x10B56, size: 0x8, addend: 0x0, symName: __ZNSt3__16vectorINS_12basic_stringIcNS_11char_traitsIcEENS_9allocatorIcEEEENS4_IS6_EEEC1B8ue170006Ev, symObjAddr: 0x638, symBinAddr: 0x100003184, symSize: 0x2C }
  - { offsetInCU: 0x10B7E, offset: 0x10B7E, size: 0x8, addend: 0x0, symName: __ZNSt3__16vectorINS0_IbNS_9allocatorIbEEEENS1_IS3_EEE5beginB8ue170006Ev, symObjAddr: 0x664, symBinAddr: 0x1000031B0, symSize: 0x30 }
  - { offsetInCU: 0x10BA4, offset: 0x10BA4, size: 0x8, addend: 0x0, symName: __ZNSt3__16vectorINS0_IbNS_9allocatorIbEEEENS1_IS3_EEE3endB8ue170006Ev, symObjAddr: 0x694, symBinAddr: 0x1000031E0, symSize: 0x30 }
  - { offsetInCU: 0x10BCB, offset: 0x10BCB, size: 0x8, addend: 0x0, symName: __ZNKSt3__111__wrap_iterIPNS_6vectorIbNS_9allocatorIbEEEEEdeB8ue170006Ev, symObjAddr: 0x6F8, symBinAddr: 0x100003244, symSize: 0x18 }
  - { offsetInCU: 0x10BF0, offset: 0x10BF0, size: 0x8, addend: 0x0, symName: __ZNSt3__16vectorIbNS_9allocatorIbEEEC1ERKS3_, symObjAddr: 0x710, symBinAddr: 0x10000325C, symSize: 0x34 }
  - { offsetInCU: 0x10C2F, offset: 0x10C2F, size: 0x8, addend: 0x0, symName: __ZNSt3__112basic_stringIcNS_11char_traitsIcEENS_9allocatorIcEEEC1B8ue170006ILi0EEEPKc, symObjAddr: 0x744, symBinAddr: 0x100003290, symSize: 0x34 }
  - { offsetInCU: 0x10C6D, offset: 0x10C6D, size: 0x8, addend: 0x0, symName: __ZNSt3__16vectorIbNS_9allocatorIbEEE5beginB8ue170006Ev, symObjAddr: 0x778, symBinAddr: 0x1000032C4, symSize: 0x30 }
  - { offsetInCU: 0x10C92, offset: 0x10C92, size: 0x8, addend: 0x0, symName: __ZNSt3__16vectorIbNS_9allocatorIbEEE3endB8ue170006Ev, symObjAddr: 0x7A8, symBinAddr: 0x1000032F4, symSize: 0x30 }
  - { offsetInCU: 0x10CB7, offset: 0x10CB7, size: 0x8, addend: 0x0, symName: __ZNKSt3__114__bit_iteratorINS_6vectorIbNS_9allocatorIbEEEELb0ELm0EEdeB8ue170006Ev, symObjAddr: 0x80C, symBinAddr: 0x100003358, symSize: 0x44 }
  - { offsetInCU: 0x10CDC, offset: 0x10CDC, size: 0x8, addend: 0x0, symName: __ZNKSt3__115__bit_referenceINS_6vectorIbNS_9allocatorIbEEEELb1EEcvbB8ue170006Ev, symObjAddr: 0x850, symBinAddr: 0x10000339C, symSize: 0x2C }
  - { offsetInCU: 0x10D01, offset: 0x10D01, size: 0x8, addend: 0x0, symName: __ZNSt3__112basic_stringIcNS_11char_traitsIcEENS_9allocatorIcEEEpLB8ue170006Ec, symObjAddr: 0x87C, symBinAddr: 0x1000033C8, symSize: 0x34 }
  - { offsetInCU: 0x10D35, offset: 0x10D35, size: 0x8, addend: 0x0, symName: __ZNSt3__114__bit_iteratorINS_6vectorIbNS_9allocatorIbEEEELb0ELm0EEppB8ue170006Ev, symObjAddr: 0x8B0, symBinAddr: 0x1000033FC, symSize: 0x5C }
  - { offsetInCU: 0x10D59, offset: 0x10D59, size: 0x8, addend: 0x0, symName: __ZNSt3__16vectorINS_12basic_stringIcNS_11char_traitsIcEENS_9allocatorIcEEEENS4_IS6_EEE9push_backB8ue170006ERKS6_, symObjAddr: 0x90C, symBinAddr: 0x100003458, symSize: 0x6C }
  - { offsetInCU: 0x10D8F, offset: 0x10D8F, size: 0x8, addend: 0x0, symName: __ZNSt3__16vectorIbNS_9allocatorIbEEED1B8ue170006Ev, symObjAddr: 0x978, symBinAddr: 0x1000034C4, symSize: 0x2C }
  - { offsetInCU: 0x10DB8, offset: 0x10DB8, size: 0x8, addend: 0x0, symName: __ZNSt3__111__wrap_iterIPNS_6vectorIbNS_9allocatorIbEEEEEppB8ue170006Ev, symObjAddr: 0x9A4, symBinAddr: 0x1000034F0, symSize: 0x20 }
  - { offsetInCU: 0x10DDC, offset: 0x10DDC, size: 0x8, addend: 0x0, symName: __ZNSt3__16vectorINS0_INS_12basic_stringIcNS_11char_traitsIcEENS_9allocatorIcEEEENS4_IS6_EEEENS4_IS8_EEE9push_backB8ue170006ERKS8_, symObjAddr: 0x9C4, symBinAddr: 0x100003510, symSize: 0x6C }
  - { offsetInCU: 0x10E12, offset: 0x10E12, size: 0x8, addend: 0x0, symName: __ZNSt3__16vectorINS_12basic_stringIcNS_11char_traitsIcEENS_9allocatorIcEEEENS4_IS6_EEED1B8ue170006Ev, symObjAddr: 0xA30, symBinAddr: 0x10000357C, symSize: 0x2C }
  - { offsetInCU: 0x10E3B, offset: 0x10E3B, size: 0x8, addend: 0x0, symName: __ZNSt3__16vectorIbNS_9allocatorIbEEEixB8ue170006Em, symObjAddr: 0xA5C, symBinAddr: 0x1000035A8, symSize: 0x3C }
  - { offsetInCU: 0x10E6F, offset: 0x10E6F, size: 0x8, addend: 0x0, symName: __ZNSt3__115__bit_referenceINS_6vectorIbNS_9allocatorIbEEEELb1EEaSB8ue170006Eb, symObjAddr: 0xA98, symBinAddr: 0x1000035E4, symSize: 0x6C }
  - { offsetInCU: 0x10EA2, offset: 0x10EA2, size: 0x8, addend: 0x0, symName: __ZNSt3__16vectorINS0_IbNS_9allocatorIbEEEENS1_IS3_EEEixB8ue170006Em, symObjAddr: 0xB04, symBinAddr: 0x100003650, symSize: 0x2C }
  - { offsetInCU: 0x10ED7, offset: 0x10ED7, size: 0x8, addend: 0x0, symName: __Z12solveNQueensi, symObjAddr: 0xB30, symBinAddr: 0x10000367C, symSize: 0x1D4 }
  - { offsetInCU: 0x10F5B, offset: 0x10F5B, size: 0x8, addend: 0x0, symName: __ZNSt3__16vectorIbNS_9allocatorIbEEEC1EmRKb, symObjAddr: 0xD04, symBinAddr: 0x100003850, symSize: 0x3C }
  - { offsetInCU: 0x10FA4, offset: 0x10FA4, size: 0x8, addend: 0x0, symName: __ZNSt3__16vectorINS0_IbNS_9allocatorIbEEEENS1_IS3_EEEC1B8ue170006Ev, symObjAddr: 0xD40, symBinAddr: 0x10000388C, symSize: 0x2C }
  - { offsetInCU: 0x10FCD, offset: 0x10FCD, size: 0x8, addend: 0x0, symName: __ZNSt3__16vectorINS0_IbNS_9allocatorIbEEEENS1_IS3_EEED1B8ue170006Ev, symObjAddr: 0xD6C, symBinAddr: 0x1000038B8, symSize: 0x2C }
  - { offsetInCU: 0x10FF6, offset: 0x10FF6, size: 0x8, addend: 0x0, symName: _main, symObjAddr: 0xD98, symBinAddr: 0x1000038E4, symSize: 0x190 }
  - { offsetInCU: 0x1109B, offset: 0x1109B, size: 0x8, addend: 0x0, symName: __ZNSt3__16vectorINS0_INS_12basic_stringIcNS_11char_traitsIcEENS_9allocatorIcEEEENS4_IS6_EEEENS4_IS8_EEE5beginB8ue170006Ev, symObjAddr: 0xF28, symBinAddr: 0x100003A74, symSize: 0x30 }
  - { offsetInCU: 0x110C1, offset: 0x110C1, size: 0x8, addend: 0x0, symName: __ZNSt3__16vectorINS0_INS_12basic_stringIcNS_11char_traitsIcEENS_9allocatorIcEEEENS4_IS6_EEEENS4_IS8_EEE3endB8ue170006Ev, symObjAddr: 0xF58, symBinAddr: 0x100003AA4, symSize: 0x30 }
  - { offsetInCU: 0x110E8, offset: 0x110E8, size: 0x8, addend: 0x0, symName: __ZNKSt3__111__wrap_iterIPNS_6vectorINS_12basic_stringIcNS_11char_traitsIcEENS_9allocatorIcEEEENS5_IS7_EEEEEdeB8ue170006Ev, symObjAddr: 0xFBC, symBinAddr: 0x100003B08, symSize: 0x18 }
  - { offsetInCU: 0x1110D, offset: 0x1110D, size: 0x8, addend: 0x0, symName: __ZNSt3__16vectorINS_12basic_stringIcNS_11char_traitsIcEENS_9allocatorIcEEEENS4_IS6_EEEC1ERKS8_, symObjAddr: 0xFD4, symBinAddr: 0x100003B20, symSize: 0x34 }
  - { offsetInCU: 0x11146, offset: 0x11146, size: 0x8, addend: 0x0, symName: __ZNSt3__16vectorINS_12basic_stringIcNS_11char_traitsIcEENS_9allocatorIcEEEENS4_IS6_EEE5beginB8ue170006Ev, symObjAddr: 0x1008, symBinAddr: 0x100003B54, symSize: 0x30 }
  - { offsetInCU: 0x1116C, offset: 0x1116C, size: 0x8, addend: 0x0, symName: __ZNSt3__16vectorINS_12basic_stringIcNS_11char_traitsIcEENS_9allocatorIcEEEENS4_IS6_EEE3endB8ue170006Ev, symObjAddr: 0x1038, symBinAddr: 0x100003B84, symSize: 0x30 }
  - { offsetInCU: 0x11193, offset: 0x11193, size: 0x8, addend: 0x0, symName: __ZNKSt3__111__wrap_iterIPNS_12basic_stringIcNS_11char_traitsIcEENS_9allocatorIcEEEEEdeB8ue170006Ev, symObjAddr: 0x109C, symBinAddr: 0x100003BE8, symSize: 0x18 }
  - { offsetInCU: 0x111B8, offset: 0x111B8, size: 0x8, addend: 0x0, symName: __ZNSt3__111__wrap_iterIPNS_12basic_stringIcNS_11char_traitsIcEENS_9allocatorIcEEEEEppB8ue170006Ev, symObjAddr: 0x1100, symBinAddr: 0x100003C4C, symSize: 0x20 }
  - { offsetInCU: 0x111DD, offset: 0x111DD, size: 0x8, addend: 0x0, symName: __ZNSt3__113basic_ostreamIcNS_11char_traitsIcEEElsB8ue170006EPFRS3_S4_E, symObjAddr: 0x1120, symBinAddr: 0x100003C6C, symSize: 0x2C }
  - { offsetInCU: 0x11210, offset: 0x11210, size: 0x8, addend: 0x0, symName: __ZNSt3__111__wrap_iterIPNS_6vectorINS_12basic_stringIcNS_11char_traitsIcEENS_9allocatorIcEEEENS5_IS7_EEEEEppB8ue170006Ev, symObjAddr: 0x11A4, symBinAddr: 0x100003CF0, symSize: 0x20 }
  - { offsetInCU: 0x11235, offset: 0x11235, size: 0x8, addend: 0x0, symName: __ZNKSt3__111__wrap_iterIPNS_6vectorIbNS_9allocatorIbEEEEE4baseB8ue170006Ev, symObjAddr: 0x120C, symBinAddr: 0x100003D58, symSize: 0x18 }
  - { offsetInCU: 0x1125A, offset: 0x1125A, size: 0x8, addend: 0x0, symName: __ZNKSt3__111__wrap_iterIPNS_6vectorINS_12basic_stringIcNS_11char_traitsIcEENS_9allocatorIcEEEENS5_IS7_EEEEE4baseB8ue170006Ev, symObjAddr: 0x126C, symBinAddr: 0x100003DB8, symSize: 0x18 }
  - { offsetInCU: 0x1127F, offset: 0x1127F, size: 0x8, addend: 0x0, symName: __ZNKSt3__111__wrap_iterIPNS_12basic_stringIcNS_11char_traitsIcEENS_9allocatorIcEEEEE4baseB8ue170006Ev, symObjAddr: 0x12CC, symBinAddr: 0x100003E18, symSize: 0x18 }
  - { offsetInCU: 0x112A4, offset: 0x112A4, size: 0x8, addend: 0x0, symName: __ZNSt3__16vectorINS0_INS_12basic_stringIcNS_11char_traitsIcEENS_9allocatorIcEEEENS4_IS6_EEEENS4_IS8_EEEC2B8ue170006Ev, symObjAddr: 0x12E4, symBinAddr: 0x100003E30, symSize: 0x4C }
  - { offsetInCU: 0x112D7, offset: 0x112D7, size: 0x8, addend: 0x0, symName: __ZNSt3__117__compressed_pairIPNS_6vectorINS_12basic_stringIcNS_11char_traitsIcEENS_9allocatorIcEEEENS5_IS7_EEEENS5_IS9_EEEC1B8ue170006IDnNS_18__default_init_tagEEEOT_OT0_, symObjAddr: 0x1330, symBinAddr: 0x100003E7C, symSize: 0x3C }
  - { offsetInCU: 0x1132E, offset: 0x1132E, size: 0x8, addend: 0x0, symName: __ZNSt3__117__compressed_pairIPNS_6vectorINS_12basic_stringIcNS_11char_traitsIcEENS_9allocatorIcEEEENS5_IS7_EEEENS5_IS9_EEEC2B8ue170006IDnNS_18__default_init_tagEEEOT_OT0_, symObjAddr: 0x1378, symBinAddr: 0x100003EC4, symSize: 0x40 }
  - { offsetInCU: 0x11385, offset: 0x11385, size: 0x8, addend: 0x0, symName: __ZNSt3__122__compressed_pair_elemIPNS_6vectorINS_12basic_stringIcNS_11char_traitsIcEENS_9allocatorIcEEEENS5_IS7_EEEELi0ELb0EEC2B8ue170006IDnvEEOT_, symObjAddr: 0x13B8, symBinAddr: 0x100003F04, symSize: 0x1C }
  - { offsetInCU: 0x113C6, offset: 0x113C6, size: 0x8, addend: 0x0, symName: __ZNSt3__122__compressed_pair_elemINS_9allocatorINS_6vectorINS_12basic_stringIcNS_11char_traitsIcEENS1_IcEEEENS1_IS7_EEEEEELi1ELb1EEC2B8ue170006ENS_18__default_init_tagE, symObjAddr: 0x13D4, symBinAddr: 0x100003F20, symSize: 0x2C }
  - { offsetInCU: 0x113FA, offset: 0x113FA, size: 0x8, addend: 0x0, symName: __ZNSt3__19allocatorINS_6vectorINS_12basic_stringIcNS_11char_traitsIcEENS0_IcEEEENS0_IS6_EEEEEC2B8ue170006Ev, symObjAddr: 0x1400, symBinAddr: 0x100003F4C, symSize: 0x2C }
  - { offsetInCU: 0x11423, offset: 0x11423, size: 0x8, addend: 0x0, symName: __ZNSt3__116__non_trivial_ifILb1ENS_9allocatorINS_6vectorINS_12basic_stringIcNS_11char_traitsIcEENS1_IcEEEENS1_IS7_EEEEEEEC2B8ue170006Ev, symObjAddr: 0x142C, symBinAddr: 0x100003F78, symSize: 0x14 }
  - { offsetInCU: 0x1144C, offset: 0x1144C, size: 0x8, addend: 0x0, symName: __ZNSt3__16vectorINS0_INS_12basic_stringIcNS_11char_traitsIcEENS_9allocatorIcEEEENS4_IS6_EEEENS4_IS8_EEED2B8ue170006Ev, symObjAddr: 0x1440, symBinAddr: 0x100003F8C, symSize: 0x44 }
  - { offsetInCU: 0x11475, offset: 0x11475, size: 0x8, addend: 0x0, symName: __ZNSt3__16vectorINS0_INS_12basic_stringIcNS_11char_traitsIcEENS_9allocatorIcEEEENS4_IS6_EEEENS4_IS8_EEE16__destroy_vectorC1B8ue170006ERSA_, symObjAddr: 0x1484, symBinAddr: 0x100003FD0, symSize: 0x34 }
  - { offsetInCU: 0x114AD, offset: 0x114AD, size: 0x8, addend: 0x0, symName: __ZNSt3__16vectorINS0_INS_12basic_stringIcNS_11char_traitsIcEENS_9allocatorIcEEEENS4_IS6_EEEENS4_IS8_EEE16__destroy_vectorclB8ue170006Ev, symObjAddr: 0x14B8, symBinAddr: 0x100004004, symSize: 0x90 }
  - { offsetInCU: 0x114D2, offset: 0x114D2, size: 0x8, addend: 0x0, symName: __ZNSt3__16vectorINS0_INS_12basic_stringIcNS_11char_traitsIcEENS_9allocatorIcEEEENS4_IS6_EEEENS4_IS8_EEE16__destroy_vectorC2B8ue170006ERSA_, symObjAddr: 0x1548, symBinAddr: 0x100004094, symSize: 0x20 }
  - { offsetInCU: 0x1150A, offset: 0x1150A, size: 0x8, addend: 0x0, symName: __ZNSt3__16vectorINS0_INS_12basic_stringIcNS_11char_traitsIcEENS_9allocatorIcEEEENS4_IS6_EEEENS4_IS8_EEE7__clearB8ue170006Ev, symObjAddr: 0x1568, symBinAddr: 0x1000040B4, symSize: 0x28 }
  - { offsetInCU: 0x1152F, offset: 0x1152F, size: 0x8, addend: 0x0, symName: __ZNKSt3__16vectorINS0_INS_12basic_stringIcNS_11char_traitsIcEENS_9allocatorIcEEEENS4_IS6_EEEENS4_IS8_EEE17__annotate_deleteB8ue170006Ev, symObjAddr: 0x1590, symBinAddr: 0x1000040DC, symSize: 0xD4 }
  - { offsetInCU: 0x11554, offset: 0x11554, size: 0x8, addend: 0x0, symName: __ZNSt3__116allocator_traitsINS_9allocatorINS_6vectorINS_12basic_stringIcNS_11char_traitsIcEENS1_IcEEEENS1_IS7_EEEEEEE10deallocateB8ue170006ERSA_PS9_m, symObjAddr: 0x1664, symBinAddr: 0x1000041B0, symSize: 0x34 }
  - { offsetInCU: 0x11596, offset: 0x11596, size: 0x8, addend: 0x0, symName: __ZNSt3__16vectorINS0_INS_12basic_stringIcNS_11char_traitsIcEENS_9allocatorIcEEEENS4_IS6_EEEENS4_IS8_EEE7__allocB8ue170006Ev, symObjAddr: 0x1698, symBinAddr: 0x1000041E4, symSize: 0x28 }
  - { offsetInCU: 0x115BB, offset: 0x115BB, size: 0x8, addend: 0x0, symName: __ZNKSt3__16vectorINS0_INS_12basic_stringIcNS_11char_traitsIcEENS_9allocatorIcEEEENS4_IS6_EEEENS4_IS8_EEE8capacityB8ue170006Ev, symObjAddr: 0x16C0, symBinAddr: 0x10000420C, symSize: 0x40 }
  - { offsetInCU: 0x115E0, offset: 0x115E0, size: 0x8, addend: 0x0, symName: __ZNSt3__16vectorINS0_INS_12basic_stringIcNS_11char_traitsIcEENS_9allocatorIcEEEENS4_IS6_EEEENS4_IS8_EEE22__base_destruct_at_endB8ue170006EPS8_, symObjAddr: 0x1700, symBinAddr: 0x10000424C, symSize: 0x8C }
  - { offsetInCU: 0x11623, offset: 0x11623, size: 0x8, addend: 0x0, symName: __ZNSt3__116allocator_traitsINS_9allocatorINS_6vectorINS_12basic_stringIcNS_11char_traitsIcEENS1_IcEEEENS1_IS7_EEEEEEE7destroyB8ue170006IS9_vEEvRSA_PT_, symObjAddr: 0x178C, symBinAddr: 0x1000042D8, symSize: 0x2C }
  - { offsetInCU: 0x11660, offset: 0x11660, size: 0x8, addend: 0x0, symName: __ZNSt3__19allocatorINS_6vectorINS_12basic_stringIcNS_11char_traitsIcEENS0_IcEEEENS0_IS6_EEEEE7destroyB8ue170006EPS8_, symObjAddr: 0x17CC, symBinAddr: 0x100004318, symSize: 0x28 }
  - { offsetInCU: 0x11693, offset: 0x11693, size: 0x8, addend: 0x0, symName: __ZNKSt3__16vectorINS0_INS_12basic_stringIcNS_11char_traitsIcEENS_9allocatorIcEEEENS4_IS6_EEEENS4_IS8_EEE31__annotate_contiguous_containerB8ue170006EPKvSC_SC_SC_, symObjAddr: 0x17F4, symBinAddr: 0x100004340, symSize: 0x20 }
  - { offsetInCU: 0x116E8, offset: 0x116E8, size: 0x8, addend: 0x0, symName: __ZNKSt3__16vectorINS0_INS_12basic_stringIcNS_11char_traitsIcEENS_9allocatorIcEEEENS4_IS6_EEEENS4_IS8_EEE4dataB8ue170006Ev, symObjAddr: 0x1814, symBinAddr: 0x100004360, symSize: 0x28 }
  - { offsetInCU: 0x1170D, offset: 0x1170D, size: 0x8, addend: 0x0, symName: __ZNKSt3__16vectorINS0_INS_12basic_stringIcNS_11char_traitsIcEENS_9allocatorIcEEEENS4_IS6_EEEENS4_IS8_EEE4sizeB8ue170006Ev, symObjAddr: 0x183C, symBinAddr: 0x100004388, symSize: 0x28 }
  - { offsetInCU: 0x11732, offset: 0x11732, size: 0x8, addend: 0x0, symName: __ZNSt3__19allocatorINS_6vectorINS_12basic_stringIcNS_11char_traitsIcEENS0_IcEEEENS0_IS6_EEEEE10deallocateB8ue170006EPS8_m, symObjAddr: 0x1864, symBinAddr: 0x1000043B0, symSize: 0x44 }
  - { offsetInCU: 0x11773, offset: 0x11773, size: 0x8, addend: 0x0, symName: __ZNSt3__117__compressed_pairIPNS_6vectorINS_12basic_stringIcNS_11char_traitsIcEENS_9allocatorIcEEEENS5_IS7_EEEENS5_IS9_EEE6secondB8ue170006Ev, symObjAddr: 0x1924, symBinAddr: 0x100004470, symSize: 0x24 }
  - { offsetInCU: 0x11798, offset: 0x11798, size: 0x8, addend: 0x0, symName: __ZNSt3__122__compressed_pair_elemINS_9allocatorINS_6vectorINS_12basic_stringIcNS_11char_traitsIcEENS1_IcEEEENS1_IS7_EEEEEELi1ELb1EE5__getB8ue170006Ev, symObjAddr: 0x1948, symBinAddr: 0x100004494, symSize: 0x14 }
  - { offsetInCU: 0x117BD, offset: 0x117BD, size: 0x8, addend: 0x0, symName: __ZNKSt3__16vectorINS0_INS_12basic_stringIcNS_11char_traitsIcEENS_9allocatorIcEEEENS4_IS6_EEEENS4_IS8_EEE9__end_capB8ue170006Ev, symObjAddr: 0x195C, symBinAddr: 0x1000044A8, symSize: 0x28 }
  - { offsetInCU: 0x117E2, offset: 0x117E2, size: 0x8, addend: 0x0, symName: __ZNKSt3__117__compressed_pairIPNS_6vectorINS_12basic_stringIcNS_11char_traitsIcEENS_9allocatorIcEEEENS5_IS7_EEEENS5_IS9_EEE5firstB8ue170006Ev, symObjAddr: 0x1984, symBinAddr: 0x1000044D0, symSize: 0x24 }
  - { offsetInCU: 0x11807, offset: 0x11807, size: 0x8, addend: 0x0, symName: __ZNKSt3__122__compressed_pair_elemIPNS_6vectorINS_12basic_stringIcNS_11char_traitsIcEENS_9allocatorIcEEEENS5_IS7_EEEELi0ELb0EE5__getB8ue170006Ev, symObjAddr: 0x19A8, symBinAddr: 0x1000044F4, symSize: 0x14 }
  - { offsetInCU: 0x1182C, offset: 0x1182C, size: 0x8, addend: 0x0, symName: __ZNSt3__16vectorINS_12basic_stringIcNS_11char_traitsIcEENS_9allocatorIcEEEENS4_IS6_EEEC2B8ue170006Ev, symObjAddr: 0x19BC, symBinAddr: 0x100004508, symSize: 0x4C }
  - { offsetInCU: 0x11855, offset: 0x11855, size: 0x8, addend: 0x0, symName: __ZNSt3__117__compressed_pairIPNS_12basic_stringIcNS_11char_traitsIcEENS_9allocatorIcEEEENS4_IS6_EEEC1B8ue170006IDnNS_18__default_init_tagEEEOT_OT0_, symObjAddr: 0x1A08, symBinAddr: 0x100004554, symSize: 0x3C }
  - { offsetInCU: 0x118AC, offset: 0x118AC, size: 0x8, addend: 0x0, symName: __ZNSt3__117__compressed_pairIPNS_12basic_stringIcNS_11char_traitsIcEENS_9allocatorIcEEEENS4_IS6_EEEC2B8ue170006IDnNS_18__default_init_tagEEEOT_OT0_, symObjAddr: 0x1A44, symBinAddr: 0x100004590, symSize: 0x40 }
  - { offsetInCU: 0x11903, offset: 0x11903, size: 0x8, addend: 0x0, symName: __ZNSt3__122__compressed_pair_elemIPNS_12basic_stringIcNS_11char_traitsIcEENS_9allocatorIcEEEELi0ELb0EEC2B8ue170006IDnvEEOT_, symObjAddr: 0x1A84, symBinAddr: 0x1000045D0, symSize: 0x1C }
  - { offsetInCU: 0x11944, offset: 0x11944, size: 0x8, addend: 0x0, symName: __ZNSt3__122__compressed_pair_elemINS_9allocatorINS_12basic_stringIcNS_11char_traitsIcEENS1_IcEEEEEELi1ELb1EEC2B8ue170006ENS_18__default_init_tagE, symObjAddr: 0x1AA0, symBinAddr: 0x1000045EC, symSize: 0x2C }
  - { offsetInCU: 0x11978, offset: 0x11978, size: 0x8, addend: 0x0, symName: __ZNSt3__19allocatorINS_12basic_stringIcNS_11char_traitsIcEENS0_IcEEEEEC2B8ue170006Ev, symObjAddr: 0x1ACC, symBinAddr: 0x100004618, symSize: 0x2C }
  - { offsetInCU: 0x119A1, offset: 0x119A1, size: 0x8, addend: 0x0, symName: __ZNSt3__116__non_trivial_ifILb1ENS_9allocatorINS_12basic_stringIcNS_11char_traitsIcEENS1_IcEEEEEEEC2B8ue170006Ev, symObjAddr: 0x1AF8, symBinAddr: 0x100004644, symSize: 0x14 }
  - { offsetInCU: 0x119CA, offset: 0x119CA, size: 0x8, addend: 0x0, symName: __ZNSt3__16vectorINS_12basic_stringIcNS_11char_traitsIcEENS_9allocatorIcEEEENS4_IS6_EEED2B8ue170006Ev, symObjAddr: 0x1B0C, symBinAddr: 0x100004658, symSize: 0x44 }
  - { offsetInCU: 0x119F3, offset: 0x119F3, size: 0x8, addend: 0x0, symName: __ZNSt3__16vectorINS_12basic_stringIcNS_11char_traitsIcEENS_9allocatorIcEEEENS4_IS6_EEE16__destroy_vectorC1B8ue170006ERS8_, symObjAddr: 0x1B50, symBinAddr: 0x10000469C, symSize: 0x34 }
  - { offsetInCU: 0x11A2B, offset: 0x11A2B, size: 0x8, addend: 0x0, symName: __ZNSt3__16vectorINS_12basic_stringIcNS_11char_traitsIcEENS_9allocatorIcEEEENS4_IS6_EEE16__destroy_vectorclB8ue170006Ev, symObjAddr: 0x1B84, symBinAddr: 0x1000046D0, symSize: 0x90 }
  - { offsetInCU: 0x11A50, offset: 0x11A50, size: 0x8, addend: 0x0, symName: __ZNSt3__16vectorINS_12basic_stringIcNS_11char_traitsIcEENS_9allocatorIcEEEENS4_IS6_EEE16__destroy_vectorC2B8ue170006ERS8_, symObjAddr: 0x1C14, symBinAddr: 0x100004760, symSize: 0x20 }
  - { offsetInCU: 0x11A88, offset: 0x11A88, size: 0x8, addend: 0x0, symName: __ZNSt3__16vectorINS_12basic_stringIcNS_11char_traitsIcEENS_9allocatorIcEEEENS4_IS6_EEE7__clearB8ue170006Ev, symObjAddr: 0x1C34, symBinAddr: 0x100004780, symSize: 0x28 }
  - { offsetInCU: 0x11AAD, offset: 0x11AAD, size: 0x8, addend: 0x0, symName: __ZNKSt3__16vectorINS_12basic_stringIcNS_11char_traitsIcEENS_9allocatorIcEEEENS4_IS6_EEE17__annotate_deleteB8ue170006Ev, symObjAddr: 0x1C5C, symBinAddr: 0x1000047A8, symSize: 0xD4 }
  - { offsetInCU: 0x11AD2, offset: 0x11AD2, size: 0x8, addend: 0x0, symName: __ZNSt3__116allocator_traitsINS_9allocatorINS_12basic_stringIcNS_11char_traitsIcEENS1_IcEEEEEEE10deallocateB8ue170006ERS7_PS6_m, symObjAddr: 0x1D30, symBinAddr: 0x10000487C, symSize: 0x34 }
  - { offsetInCU: 0x11B14, offset: 0x11B14, size: 0x8, addend: 0x0, symName: __ZNSt3__16vectorINS_12basic_stringIcNS_11char_traitsIcEENS_9allocatorIcEEEENS4_IS6_EEE7__allocB8ue170006Ev, symObjAddr: 0x1D64, symBinAddr: 0x1000048B0, symSize: 0x28 }
  - { offsetInCU: 0x11B39, offset: 0x11B39, size: 0x8, addend: 0x0, symName: __ZNKSt3__16vectorINS_12basic_stringIcNS_11char_traitsIcEENS_9allocatorIcEEEENS4_IS6_EEE8capacityB8ue170006Ev, symObjAddr: 0x1D8C, symBinAddr: 0x1000048D8, symSize: 0x40 }
  - { offsetInCU: 0x11B5E, offset: 0x11B5E, size: 0x8, addend: 0x0, symName: __ZNSt3__16vectorINS_12basic_stringIcNS_11char_traitsIcEENS_9allocatorIcEEEENS4_IS6_EEE22__base_destruct_at_endB8ue170006EPS6_, symObjAddr: 0x1DCC, symBinAddr: 0x100004918, symSize: 0x8C }
  - { offsetInCU: 0x11BA1, offset: 0x11BA1, size: 0x8, addend: 0x0, symName: __ZNSt3__116allocator_traitsINS_9allocatorINS_12basic_stringIcNS_11char_traitsIcEENS1_IcEEEEEEE7destroyB8ue170006IS6_vEEvRS7_PT_, symObjAddr: 0x1E58, symBinAddr: 0x1000049A4, symSize: 0x2C }
  - { offsetInCU: 0x11BDE, offset: 0x11BDE, size: 0x8, addend: 0x0, symName: __ZNSt3__19allocatorINS_12basic_stringIcNS_11char_traitsIcEENS0_IcEEEEE7destroyB8ue170006EPS5_, symObjAddr: 0x1E98, symBinAddr: 0x1000049E4, symSize: 0x28 }
  - { offsetInCU: 0x11C11, offset: 0x11C11, size: 0x8, addend: 0x0, symName: __ZNKSt3__16vectorINS_12basic_stringIcNS_11char_traitsIcEENS_9allocatorIcEEEENS4_IS6_EEE31__annotate_contiguous_containerB8ue170006EPKvSA_SA_SA_, symObjAddr: 0x1EC0, symBinAddr: 0x100004A0C, symSize: 0x20 }
  - { offsetInCU: 0x11C66, offset: 0x11C66, size: 0x8, addend: 0x0, symName: __ZNKSt3__16vectorINS_12basic_stringIcNS_11char_traitsIcEENS_9allocatorIcEEEENS4_IS6_EEE4dataB8ue170006Ev, symObjAddr: 0x1EE0, symBinAddr: 0x100004A2C, symSize: 0x28 }
  - { offsetInCU: 0x11C8B, offset: 0x11C8B, size: 0x8, addend: 0x0, symName: __ZNKSt3__16vectorINS_12basic_stringIcNS_11char_traitsIcEENS_9allocatorIcEEEENS4_IS6_EEE4sizeB8ue170006Ev, symObjAddr: 0x1F08, symBinAddr: 0x100004A54, symSize: 0x28 }
  - { offsetInCU: 0x11CB0, offset: 0x11CB0, size: 0x8, addend: 0x0, symName: __ZNSt3__19allocatorINS_12basic_stringIcNS_11char_traitsIcEENS0_IcEEEEE10deallocateB8ue170006EPS5_m, symObjAddr: 0x1F30, symBinAddr: 0x100004A7C, symSize: 0x44 }
  - { offsetInCU: 0x11CF1, offset: 0x11CF1, size: 0x8, addend: 0x0, symName: __ZNSt3__117__compressed_pairIPNS_12basic_stringIcNS_11char_traitsIcEENS_9allocatorIcEEEENS4_IS6_EEE6secondB8ue170006Ev, symObjAddr: 0x1F74, symBinAddr: 0x100004AC0, symSize: 0x24 }
  - { offsetInCU: 0x11D16, offset: 0x11D16, size: 0x8, addend: 0x0, symName: __ZNSt3__122__compressed_pair_elemINS_9allocatorINS_12basic_stringIcNS_11char_traitsIcEENS1_IcEEEEEELi1ELb1EE5__getB8ue170006Ev, symObjAddr: 0x1F98, symBinAddr: 0x100004AE4, symSize: 0x14 }
  - { offsetInCU: 0x11D3B, offset: 0x11D3B, size: 0x8, addend: 0x0, symName: __ZNKSt3__16vectorINS_12basic_stringIcNS_11char_traitsIcEENS_9allocatorIcEEEENS4_IS6_EEE9__end_capB8ue170006Ev, symObjAddr: 0x1FAC, symBinAddr: 0x100004AF8, symSize: 0x28 }
  - { offsetInCU: 0x11D60, offset: 0x11D60, size: 0x8, addend: 0x0, symName: __ZNKSt3__117__compressed_pairIPNS_12basic_stringIcNS_11char_traitsIcEENS_9allocatorIcEEEENS4_IS6_EEE5firstB8ue170006Ev, symObjAddr: 0x1FD4, symBinAddr: 0x100004B20, symSize: 0x24 }
  - { offsetInCU: 0x11D85, offset: 0x11D85, size: 0x8, addend: 0x0, symName: __ZNKSt3__122__compressed_pair_elemIPNS_12basic_stringIcNS_11char_traitsIcEENS_9allocatorIcEEEELi0ELb0EE5__getB8ue170006Ev, symObjAddr: 0x1FF8, symBinAddr: 0x100004B44, symSize: 0x14 }
  - { offsetInCU: 0x11DAA, offset: 0x11DAA, size: 0x8, addend: 0x0, symName: __ZNSt3__16vectorINS0_IbNS_9allocatorIbEEEENS1_IS3_EEE11__make_iterB8ue170006EPS3_, symObjAddr: 0x200C, symBinAddr: 0x100004B58, symSize: 0x30 }
  - { offsetInCU: 0x11DDE, offset: 0x11DDE, size: 0x8, addend: 0x0, symName: __ZNSt3__111__wrap_iterIPNS_6vectorIbNS_9allocatorIbEEEEEC1B8ue170006ES5_, symObjAddr: 0x203C, symBinAddr: 0x100004B88, symSize: 0x34 }
  - { offsetInCU: 0x11E15, offset: 0x11E15, size: 0x8, addend: 0x0, symName: __ZNSt3__111__wrap_iterIPNS_6vectorIbNS_9allocatorIbEEEEEC2B8ue170006ES5_, symObjAddr: 0x2070, symBinAddr: 0x100004BBC, symSize: 0x20 }
  - { offsetInCU: 0x11E4C, offset: 0x11E4C, size: 0x8, addend: 0x0, symName: __ZNSt3__16vectorIbNS_9allocatorIbEEEC2ERKS3_, symObjAddr: 0x2090, symBinAddr: 0x100004BDC, symSize: 0xDC }
  - { offsetInCU: 0x11E90, offset: 0x11E90, size: 0x8, addend: 0x0, symName: __ZNSt3__116allocator_traitsINS_9allocatorImEEE37select_on_container_copy_constructionB8ue170006IS2_vvEES2_RKS2_, symObjAddr: 0x216C, symBinAddr: 0x100004CB8, symSize: 0x10 }
  - { offsetInCU: 0x11EBF, offset: 0x11EBF, size: 0x8, addend: 0x0, symName: __ZNKSt3__16vectorIbNS_9allocatorIbEEE7__allocB8ue170006Ev, symObjAddr: 0x217C, symBinAddr: 0x100004CC8, symSize: 0x28 }
  - { offsetInCU: 0x11EEE, offset: 0x11EEE, size: 0x8, addend: 0x0, symName: __ZNSt3__117__compressed_pairImNS_9allocatorImEEEC1B8ue170006IiS2_EEOT_OT0_, symObjAddr: 0x21A4, symBinAddr: 0x100004CF0, symSize: 0x3C }
  - { offsetInCU: 0x11F45, offset: 0x11F45, size: 0x8, addend: 0x0, symName: __ZNKSt3__16vectorIbNS_9allocatorIbEEE4sizeB8ue170006Ev, symObjAddr: 0x21E0, symBinAddr: 0x100004D2C, symSize: 0x18 }
  - { offsetInCU: 0x11F6A, offset: 0x11F6A, size: 0x8, addend: 0x0, symName: __ZNSt3__16vectorIbNS_9allocatorIbEEE11__vallocateB8ue170006Em, symObjAddr: 0x21F8, symBinAddr: 0x100004D44, symSize: 0xA0 }
  - { offsetInCU: 0x11FAC, offset: 0x11FAC, size: 0x8, addend: 0x0, symName: __ZNSt3__16vectorIbNS_9allocatorIbEEE18__construct_at_endINS_14__bit_iteratorIS3_Lb1ELm0EEES6_EEvT_T0_m, symObjAddr: 0x2298, symBinAddr: 0x100004DE4, symSize: 0x124 }
  - { offsetInCU: 0x12021, offset: 0x12021, size: 0x8, addend: 0x0, symName: __ZNKSt3__16vectorIbNS_9allocatorIbEEE5beginB8ue170006Ev, symObjAddr: 0x23BC, symBinAddr: 0x100004F08, symSize: 0x38 }
  - { offsetInCU: 0x12046, offset: 0x12046, size: 0x8, addend: 0x0, symName: __ZNKSt3__16vectorIbNS_9allocatorIbEEE3endB8ue170006Ev, symObjAddr: 0x23F4, symBinAddr: 0x100004F40, symSize: 0x38 }
  - { offsetInCU: 0x1206B, offset: 0x1206B, size: 0x8, addend: 0x0, symName: __ZNKSt3__117__compressed_pairImNS_9allocatorImEEE6secondB8ue170006Ev, symObjAddr: 0x242C, symBinAddr: 0x100004F78, symSize: 0x24 }
  - { offsetInCU: 0x12090, offset: 0x12090, size: 0x8, addend: 0x0, symName: __ZNKSt3__122__compressed_pair_elemINS_9allocatorImEELi1ELb1EE5__getB8ue170006Ev, symObjAddr: 0x2450, symBinAddr: 0x100004F9C, symSize: 0x14 }
  - { offsetInCU: 0x120B5, offset: 0x120B5, size: 0x8, addend: 0x0, symName: __ZNSt3__117__compressed_pairImNS_9allocatorImEEEC2B8ue170006IiS2_EEOT_OT0_, symObjAddr: 0x2464, symBinAddr: 0x100004FB0, symSize: 0x44 }
  - { offsetInCU: 0x1210C, offset: 0x1210C, size: 0x8, addend: 0x0, symName: __ZNSt3__122__compressed_pair_elemImLi0ELb0EEC2B8ue170006IivEEOT_, symObjAddr: 0x24A8, symBinAddr: 0x100004FF4, symSize: 0x24 }
  - { offsetInCU: 0x1214D, offset: 0x1214D, size: 0x8, addend: 0x0, symName: __ZNSt3__122__compressed_pair_elemINS_9allocatorImEELi1ELb1EEC2B8ue170006IS2_vEEOT_, symObjAddr: 0x24CC, symBinAddr: 0x100005018, symSize: 0x18 }
  - { offsetInCU: 0x1218D, offset: 0x1218D, size: 0x8, addend: 0x0, symName: __ZNKSt3__16vectorIbNS_9allocatorIbEEE8max_sizeEv, symObjAddr: 0x24E4, symBinAddr: 0x100005030, symSize: 0x7C }
  - { offsetInCU: 0x121D2, offset: 0x121D2, size: 0x8, addend: 0x0, symName: __ZNKSt3__16vectorIbNS_9allocatorIbEEE20__throw_length_errorB8ue170006Ev, symObjAddr: 0x2560, symBinAddr: 0x1000050AC, symSize: 0x1C }
  - { offsetInCU: 0x121F7, offset: 0x121F7, size: 0x8, addend: 0x0, symName: __ZNSt3__16vectorIbNS_9allocatorIbEEE7__allocB8ue170006Ev, symObjAddr: 0x25BC, symBinAddr: 0x100005108, symSize: 0x28 }
  - { offsetInCU: 0x1221C, offset: 0x1221C, size: 0x8, addend: 0x0, symName: __ZNSt3__16vectorIbNS_9allocatorIbEEE26__external_cap_to_internalB8ue170006Em, symObjAddr: 0x25E4, symBinAddr: 0x100005130, symSize: 0x24 }
  - { offsetInCU: 0x12240, offset: 0x12240, size: 0x8, addend: 0x0, symName: __ZNSt3__16vectorIbNS_9allocatorIbEEE5__capB8ue170006Ev, symObjAddr: 0x2608, symBinAddr: 0x100005154, symSize: 0x28 }
  - { offsetInCU: 0x12265, offset: 0x12265, size: 0x8, addend: 0x0, symName: __ZNSt3__116allocator_traitsINS_9allocatorImEEE8max_sizeB8ue170006IS2_vEEmRKS2_, symObjAddr: 0x2630, symBinAddr: 0x10000517C, symSize: 0x24 }
  - { offsetInCU: 0x12293, offset: 0x12293, size: 0x8, addend: 0x0, symName: __ZNSt3__114numeric_limitsImE3maxB8ue170006Ev, symObjAddr: 0x2654, symBinAddr: 0x1000051A0, symSize: 0x14 }
  - { offsetInCU: 0x122A7, offset: 0x122A7, size: 0x8, addend: 0x0, symName: __ZNSt3__16vectorIbNS_9allocatorIbEEE26__internal_cap_to_externalB8ue170006Em, symObjAddr: 0x2668, symBinAddr: 0x1000051B4, symSize: 0x18 }
  - { offsetInCU: 0x122CB, offset: 0x122CB, size: 0x8, addend: 0x0, symName: __ZNKSt3__19allocatorImE8max_sizeB8ue170006Ev, symObjAddr: 0x2680, symBinAddr: 0x1000051CC, symSize: 0x14 }
  - { offsetInCU: 0x122F0, offset: 0x122F0, size: 0x8, addend: 0x0, symName: __ZNSt3__123__libcpp_numeric_limitsImLb1EE3maxB8ue170006Ev, symObjAddr: 0x2694, symBinAddr: 0x1000051E0, symSize: 0x8 }
  - { offsetInCU: 0x12304, offset: 0x12304, size: 0x8, addend: 0x0, symName: __ZNSt12length_errorC1B8ue170006EPKc, symObjAddr: 0x2700, symBinAddr: 0x10000524C, symSize: 0x34 }
  - { offsetInCU: 0x1233B, offset: 0x1233B, size: 0x8, addend: 0x0, symName: __ZNSt12length_errorC2B8ue170006EPKc, symObjAddr: 0x2734, symBinAddr: 0x100005280, symSize: 0x4C }
  - { offsetInCU: 0x12372, offset: 0x12372, size: 0x8, addend: 0x0, symName: __ZNSt3__19allocatorImE8allocateB8ue170006Em, symObjAddr: 0x2780, symBinAddr: 0x1000052CC, symSize: 0x58 }
  - { offsetInCU: 0x123A5, offset: 0x123A5, size: 0x8, addend: 0x0, symName: __ZNSt3__117__compressed_pairImNS_9allocatorImEEE6secondB8ue170006Ev, symObjAddr: 0x2858, symBinAddr: 0x1000053A4, symSize: 0x24 }
  - { offsetInCU: 0x123CA, offset: 0x123CA, size: 0x8, addend: 0x0, symName: __ZNSt3__122__compressed_pair_elemINS_9allocatorImEELi1ELb1EE5__getB8ue170006Ev, symObjAddr: 0x287C, symBinAddr: 0x1000053C8, symSize: 0x14 }
  - { offsetInCU: 0x123EF, offset: 0x123EF, size: 0x8, addend: 0x0, symName: __ZNSt3__117__compressed_pairImNS_9allocatorImEEE5firstB8ue170006Ev, symObjAddr: 0x2890, symBinAddr: 0x1000053DC, symSize: 0x24 }
  - { offsetInCU: 0x12414, offset: 0x12414, size: 0x8, addend: 0x0, symName: __ZNSt3__122__compressed_pair_elemImLi0ELb0EE5__getB8ue170006Ev, symObjAddr: 0x28B4, symBinAddr: 0x100005400, symSize: 0x14 }
  - { offsetInCU: 0x12439, offset: 0x12439, size: 0x8, addend: 0x0, symName: __ZNSt3__16vectorIbNS_9allocatorIbEEE11__make_iterB8ue170006Em, symObjAddr: 0x2944, symBinAddr: 0x100005490, symSize: 0x64 }
  - { offsetInCU: 0x1246D, offset: 0x1246D, size: 0x8, addend: 0x0, symName: __ZNSt3__114__bit_iteratorINS_6vectorIbNS_9allocatorIbEEEELb0ELm0EEC1B8ue170006ERKS5_, symObjAddr: 0x2A24, symBinAddr: 0x100005570, symSize: 0x34 }
  - { offsetInCU: 0x124C8, offset: 0x124C8, size: 0x8, addend: 0x0, symName: __ZNKSt3__111__copy_loopINS_17_ClassicAlgPolicyEEclB8ue170006INS_14__bit_iteratorINS_6vectorIbNS_9allocatorIbEEEELb1ELm0EEES9_NS4_IS8_Lb0ELm0EEEEENS_4pairIT_T1_EESC_T0_SD_, symObjAddr: 0x2C2C, symBinAddr: 0x100005778, symSize: 0xC4 }
  - { offsetInCU: 0x12551, offset: 0x12551, size: 0x8, addend: 0x0, symName: __ZNSt3__14pairINS_14__bit_iteratorINS_6vectorIbNS_9allocatorIbEEEELb1ELm0EEES6_EC1B8ue170006IS6_S6_LPv0EEEOT_OT0_, symObjAddr: 0x2EC0, symBinAddr: 0x100005A0C, symSize: 0x3C }
  - { offsetInCU: 0x125AE, offset: 0x125AE, size: 0x8, addend: 0x0, symName: __ZNSt3__14pairINS_14__bit_iteratorINS_6vectorIbNS_9allocatorIbEEEELb1ELm0EEES6_EC2B8ue170006IS6_S6_LPv0EEEOT_OT0_, symObjAddr: 0x2EFC, symBinAddr: 0x100005A48, symSize: 0x34 }
  - { offsetInCU: 0x1260B, offset: 0x1260B, size: 0x8, addend: 0x0, symName: __ZNSt3__118__unwrap_iter_implINS_14__bit_iteratorINS_6vectorIbNS_9allocatorIbEEEELb1ELm0EEELb0EE8__unwrapB8ue170006ES6_, symObjAddr: 0x2F30, symBinAddr: 0x100005A7C, symSize: 0x24 }
  - { offsetInCU: 0x1262E, offset: 0x1262E, size: 0x8, addend: 0x0, symName: __ZNKSt3__114__bit_iteratorINS_6vectorIbNS_9allocatorIbEEEELb1ELm0EEdeB8ue170006Ev, symObjAddr: 0x2F88, symBinAddr: 0x100005AD4, symSize: 0x44 }
  - { offsetInCU: 0x12653, offset: 0x12653, size: 0x8, addend: 0x0, symName: __ZNKSt3__121__bit_const_referenceINS_6vectorIbNS_9allocatorIbEEEEEcvbB8ue170006Ev, symObjAddr: 0x2FCC, symBinAddr: 0x100005B18, symSize: 0x2C }
  - { offsetInCU: 0x12678, offset: 0x12678, size: 0x8, addend: 0x0, symName: __ZNSt3__114__bit_iteratorINS_6vectorIbNS_9allocatorIbEEEELb1ELm0EEppB8ue170006Ev, symObjAddr: 0x2FF8, symBinAddr: 0x100005B44, symSize: 0x5C }
  - { offsetInCU: 0x1269D, offset: 0x1269D, size: 0x8, addend: 0x0, symName: __ZNSt3__121__bit_const_referenceINS_6vectorIbNS_9allocatorIbEEEEEC1B8ue170006EPKmm, symObjAddr: 0x30B8, symBinAddr: 0x100005C04, symSize: 0x3C }
  - { offsetInCU: 0x126E2, offset: 0x126E2, size: 0x8, addend: 0x0, symName: __ZNSt3__121__bit_const_referenceINS_6vectorIbNS_9allocatorIbEEEEEC2B8ue170006EPKmm, symObjAddr: 0x30F4, symBinAddr: 0x100005C40, symSize: 0x2C }
  - { offsetInCU: 0x12727, offset: 0x12727, size: 0x8, addend: 0x0, symName: __ZNSt3__118__unwrap_iter_implINS_14__bit_iteratorINS_6vectorIbNS_9allocatorIbEEEELb0ELm0EEELb0EE8__unwrapB8ue170006ES6_, symObjAddr: 0x3120, symBinAddr: 0x100005C6C, symSize: 0x38 }
  - { offsetInCU: 0x12750, offset: 0x12750, size: 0x8, addend: 0x0, symName: __ZNSt3__14pairINS_14__bit_iteratorINS_6vectorIbNS_9allocatorIbEEEELb1ELm0EEENS1_IS5_Lb0ELm0EEEEC1B8ue170006IS6_S7_LPv0EEEOT_OT0_, symObjAddr: 0x3158, symBinAddr: 0x100005CA4, symSize: 0x3C }
  - { offsetInCU: 0x127AD, offset: 0x127AD, size: 0x8, addend: 0x0, symName: __ZNSt3__14pairINS_14__bit_iteratorINS_6vectorIbNS_9allocatorIbEEEELb1ELm0EEENS1_IS5_Lb0ELm0EEEEC2B8ue170006IS6_S7_LPv0EEEOT_OT0_, symObjAddr: 0x3194, symBinAddr: 0x100005CE0, symSize: 0x48 }
  - { offsetInCU: 0x1280A, offset: 0x1280A, size: 0x8, addend: 0x0, symName: __ZNSt3__118__unwrap_iter_implINS_14__bit_iteratorINS_6vectorIbNS_9allocatorIbEEEELb1ELm0EEELb0EE8__rewrapB8ue170006ES6_S6_, symObjAddr: 0x3250, symBinAddr: 0x100005D9C, symSize: 0x2C }
  - { offsetInCU: 0x12838, offset: 0x12838, size: 0x8, addend: 0x0, symName: __ZNSt3__118__unwrap_iter_implINS_14__bit_iteratorINS_6vectorIbNS_9allocatorIbEEEELb0ELm0EEELb0EE8__rewrapB8ue170006ES6_S6_, symObjAddr: 0x327C, symBinAddr: 0x100005DC8, symSize: 0x3C }
  - { offsetInCU: 0x12868, offset: 0x12868, size: 0x8, addend: 0x0, symName: __ZNSt3__114__bit_iteratorINS_6vectorIbNS_9allocatorIbEEEELb0ELm0EEC2B8ue170006ERKS5_, symObjAddr: 0x32B8, symBinAddr: 0x100005E04, symSize: 0x30 }
  - { offsetInCU: 0x128A0, offset: 0x128A0, size: 0x8, addend: 0x0, symName: __ZNSt3__114__bit_iteratorINS_6vectorIbNS_9allocatorIbEEEELb0ELm0EEC1B8ue170006EPmj, symObjAddr: 0x32E8, symBinAddr: 0x100005E34, symSize: 0x3C }
  - { offsetInCU: 0x128E7, offset: 0x128E7, size: 0x8, addend: 0x0, symName: __ZNSt3__114__bit_iteratorINS_6vectorIbNS_9allocatorIbEEEELb0ELm0EEC2B8ue170006EPmj, symObjAddr: 0x3324, symBinAddr: 0x100005E70, symSize: 0x2C }
  - { offsetInCU: 0x1292E, offset: 0x1292E, size: 0x8, addend: 0x0, symName: __ZNKSt3__16vectorIbNS_9allocatorIbEEE11__make_iterB8ue170006Em, symObjAddr: 0x3350, symBinAddr: 0x100005E9C, symSize: 0x5C }
  - { offsetInCU: 0x12962, offset: 0x12962, size: 0x8, addend: 0x0, symName: __ZNSt3__114__bit_iteratorINS_6vectorIbNS_9allocatorIbEEEELb1ELm0EEC1B8ue170006EPKmj, symObjAddr: 0x33AC, symBinAddr: 0x100005EF8, symSize: 0x3C }
  - { offsetInCU: 0x129A9, offset: 0x129A9, size: 0x8, addend: 0x0, symName: __ZNSt3__114__bit_iteratorINS_6vectorIbNS_9allocatorIbEEEELb1ELm0EEC2B8ue170006EPKmj, symObjAddr: 0x33E8, symBinAddr: 0x100005F34, symSize: 0x2C }
  - { offsetInCU: 0x129F0, offset: 0x129F0, size: 0x8, addend: 0x0, symName: __ZNSt3__16vectorIbNS_9allocatorIbEEED2B8ue170006Ev, symObjAddr: 0x3414, symBinAddr: 0x100005F60, symSize: 0x44 }
  - { offsetInCU: 0x12A19, offset: 0x12A19, size: 0x8, addend: 0x0, symName: __ZNSt3__16vectorIbNS_9allocatorIbEEE16__destroy_vectorC1B8ue170006ERS3_, symObjAddr: 0x3458, symBinAddr: 0x100005FA4, symSize: 0x34 }
  - { offsetInCU: 0x12A51, offset: 0x12A51, size: 0x8, addend: 0x0, symName: __ZNSt3__16vectorIbNS_9allocatorIbEEE16__destroy_vectorclB8ue170006Ev, symObjAddr: 0x348C, symBinAddr: 0x100005FD8, symSize: 0x7C }
  - { offsetInCU: 0x12A76, offset: 0x12A76, size: 0x8, addend: 0x0, symName: __ZNSt3__16vectorIbNS_9allocatorIbEEE16__destroy_vectorC2B8ue170006ERS3_, symObjAddr: 0x3508, symBinAddr: 0x100006054, symSize: 0x20 }
  - { offsetInCU: 0x12AAE, offset: 0x12AAE, size: 0x8, addend: 0x0, symName: __ZNSt3__116allocator_traitsINS_9allocatorImEEE10deallocateB8ue170006ERS2_Pmm, symObjAddr: 0x3528, symBinAddr: 0x100006074, symSize: 0x34 }
  - { offsetInCU: 0x12AF0, offset: 0x12AF0, size: 0x8, addend: 0x0, symName: __ZNSt3__19allocatorImE10deallocateB8ue170006EPmm, symObjAddr: 0x355C, symBinAddr: 0x1000060A8, symSize: 0x40 }
  - { offsetInCU: 0x12B31, offset: 0x12B31, size: 0x8, addend: 0x0, symName: __ZNSt3__112basic_stringIcNS_11char_traitsIcEENS_9allocatorIcEEEC2B8ue170006ILi0EEEPKc, symObjAddr: 0x359C, symBinAddr: 0x1000060E8, symSize: 0x58 }
  - { offsetInCU: 0x12B6F, offset: 0x12B6F, size: 0x8, addend: 0x0, symName: __ZNSt3__117__compressed_pairINS_12basic_stringIcNS_11char_traitsIcEENS_9allocatorIcEEE5__repES5_EC1B8ue170006INS_18__default_init_tagESA_EEOT_OT0_, symObjAddr: 0x35F4, symBinAddr: 0x100006140, symSize: 0x3C }
  - { offsetInCU: 0x12BC6, offset: 0x12BC6, size: 0x8, addend: 0x0, symName: __ZNSt3__111char_traitsIcE6lengthB8ue170006EPKc, symObjAddr: 0x3630, symBinAddr: 0x10000617C, symSize: 0x34 }
  - { offsetInCU: 0x12BE9, offset: 0x12BE9, size: 0x8, addend: 0x0, symName: __ZNSt3__117__compressed_pairINS_12basic_stringIcNS_11char_traitsIcEENS_9allocatorIcEEE5__repES5_EC2B8ue170006INS_18__default_init_tagESA_EEOT_OT0_, symObjAddr: 0x3664, symBinAddr: 0x1000061B0, symSize: 0x3C }
  - { offsetInCU: 0x12C40, offset: 0x12C40, size: 0x8, addend: 0x0, symName: __ZNSt3__122__compressed_pair_elemINS_12basic_stringIcNS_11char_traitsIcEENS_9allocatorIcEEE5__repELi0ELb0EEC2B8ue170006ENS_18__default_init_tagE, symObjAddr: 0x36A0, symBinAddr: 0x1000061EC, symSize: 0x14 }
  - { offsetInCU: 0x12C74, offset: 0x12C74, size: 0x8, addend: 0x0, symName: __ZNSt3__122__compressed_pair_elemINS_9allocatorIcEELi1ELb1EEC2B8ue170006ENS_18__default_init_tagE, symObjAddr: 0x36B4, symBinAddr: 0x100006200, symSize: 0x2C }
  - { offsetInCU: 0x12CA8, offset: 0x12CA8, size: 0x8, addend: 0x0, symName: __ZNSt3__19allocatorIcEC2B8ue170006Ev, symObjAddr: 0x36E0, symBinAddr: 0x10000622C, symSize: 0x2C }
  - { offsetInCU: 0x12CD1, offset: 0x12CD1, size: 0x8, addend: 0x0, symName: __ZNSt3__116__non_trivial_ifILb1ENS_9allocatorIcEEEC2B8ue170006Ev, symObjAddr: 0x370C, symBinAddr: 0x100006258, symSize: 0x14 }
  - { offsetInCU: 0x12CFA, offset: 0x12CFA, size: 0x8, addend: 0x0, symName: __ZNSt3__115__bit_referenceINS_6vectorIbNS_9allocatorIbEEEELb1EEC1B8ue170006EPmm, symObjAddr: 0x37A8, symBinAddr: 0x1000062F4, symSize: 0x3C }
  - { offsetInCU: 0x12D3F, offset: 0x12D3F, size: 0x8, addend: 0x0, symName: __ZNSt3__115__bit_referenceINS_6vectorIbNS_9allocatorIbEEEELb1EEC2B8ue170006EPmm, symObjAddr: 0x37E4, symBinAddr: 0x100006330, symSize: 0x2C }
  - { offsetInCU: 0x12D84, offset: 0x12D84, size: 0x8, addend: 0x0, symName: __ZNSt3__16vectorINS_12basic_stringIcNS_11char_traitsIcEENS_9allocatorIcEEEENS4_IS6_EEE9__end_capB8ue170006Ev, symObjAddr: 0x3810, symBinAddr: 0x10000635C, symSize: 0x28 }
  - { offsetInCU: 0x12DA9, offset: 0x12DA9, size: 0x8, addend: 0x0, symName: __ZNSt3__16vectorINS_12basic_stringIcNS_11char_traitsIcEENS_9allocatorIcEEEENS4_IS6_EEE22__construct_one_at_endB8ue170006IJRKS6_EEEvDpOT_, symObjAddr: 0x3838, symBinAddr: 0x100006384, symSize: 0x90 }
  - { offsetInCU: 0x12DF6, offset: 0x12DF6, size: 0x8, addend: 0x0, symName: __ZNSt3__16vectorINS_12basic_stringIcNS_11char_traitsIcEENS_9allocatorIcEEEENS4_IS6_EEE21__push_back_slow_pathIRKS6_EEvOT_, symObjAddr: 0x38C8, symBinAddr: 0x100006414, symSize: 0xD8 }
  - { offsetInCU: 0x12E53, offset: 0x12E53, size: 0x8, addend: 0x0, symName: __ZNSt3__117__compressed_pairIPNS_12basic_stringIcNS_11char_traitsIcEENS_9allocatorIcEEEENS4_IS6_EEE5firstB8ue170006Ev, symObjAddr: 0x39A0, symBinAddr: 0x1000064EC, symSize: 0x24 }
  - { offsetInCU: 0x12E78, offset: 0x12E78, size: 0x8, addend: 0x0, symName: __ZNSt3__122__compressed_pair_elemIPNS_12basic_stringIcNS_11char_traitsIcEENS_9allocatorIcEEEELi0ELb0EE5__getB8ue170006Ev, symObjAddr: 0x39C4, symBinAddr: 0x100006510, symSize: 0x14 }
  - { offsetInCU: 0x12EB6, offset: 0x12EB6, size: 0x8, addend: 0x0, symName: __ZNSt3__16vectorINS_12basic_stringIcNS_11char_traitsIcEENS_9allocatorIcEEEENS4_IS6_EEE21_ConstructTransactionC1B8ue170006ERS8_m, symObjAddr: 0x39D8, symBinAddr: 0x100006524, symSize: 0x3C }
  - { offsetInCU: 0x12EFD, offset: 0x12EFD, size: 0x8, addend: 0x0, symName: __ZNSt3__116allocator_traitsINS_9allocatorINS_12basic_stringIcNS_11char_traitsIcEENS1_IcEEEEEEE9constructB8ue170006IS6_JRKS6_EvEEvRS7_PT_DpOT0_, symObjAddr: 0x3A14, symBinAddr: 0x100006560, symSize: 0x34 }
  - { offsetInCU: 0x12F54, offset: 0x12F54, size: 0x8, addend: 0x0, symName: __ZNSt3__16vectorINS_12basic_stringIcNS_11char_traitsIcEENS_9allocatorIcEEEENS4_IS6_EEE21_ConstructTransactionD1B8ue170006Ev, symObjAddr: 0x3A48, symBinAddr: 0x100006594, symSize: 0x2C }
  - { offsetInCU: 0x12F7D, offset: 0x12F7D, size: 0x8, addend: 0x0, symName: __ZNSt3__16vectorINS_12basic_stringIcNS_11char_traitsIcEENS_9allocatorIcEEEENS4_IS6_EEE21_ConstructTransactionC2B8ue170006ERS8_m, symObjAddr: 0x3A74, symBinAddr: 0x1000065C0, symSize: 0x4C }
  - { offsetInCU: 0x12FC4, offset: 0x12FC4, size: 0x8, addend: 0x0, symName: __ZNSt3__19allocatorINS_12basic_stringIcNS_11char_traitsIcEENS0_IcEEEEE9constructB8ue170006IS5_JRKS5_EEEvPT_DpOT0_, symObjAddr: 0x3AC0, symBinAddr: 0x10000660C, symSize: 0x30 }
  - { offsetInCU: 0x13019, offset: 0x13019, size: 0x8, addend: 0x0, symName: __ZNSt3__16vectorINS_12basic_stringIcNS_11char_traitsIcEENS_9allocatorIcEEEENS4_IS6_EEE21_ConstructTransactionD2B8ue170006Ev, symObjAddr: 0x3AF0, symBinAddr: 0x10000663C, symSize: 0x20 }
  - { offsetInCU: 0x13041, offset: 0x13041, size: 0x8, addend: 0x0, symName: __ZNKSt3__16vectorINS_12basic_stringIcNS_11char_traitsIcEENS_9allocatorIcEEEENS4_IS6_EEE11__recommendB8ue170006Em, symObjAddr: 0x3B10, symBinAddr: 0x10000665C, symSize: 0xB4 }
  - { offsetInCU: 0x13095, offset: 0x13095, size: 0x8, addend: 0x0, symName: __ZNSt3__114__split_bufferINS_12basic_stringIcNS_11char_traitsIcEENS_9allocatorIcEEEERNS4_IS6_EEEC1EmmS8_, symObjAddr: 0x3BC4, symBinAddr: 0x100006710, symSize: 0x44 }
  - { offsetInCU: 0x130EA, offset: 0x130EA, size: 0x8, addend: 0x0, symName: __ZNSt3__114__split_bufferINS_12basic_stringIcNS_11char_traitsIcEENS_9allocatorIcEEEERNS4_IS6_EEED1Ev, symObjAddr: 0x3D18, symBinAddr: 0x100006864, symSize: 0x2C }
  - { offsetInCU: 0x13114, offset: 0x13114, size: 0x8, addend: 0x0, symName: __ZNKSt3__16vectorINS_12basic_stringIcNS_11char_traitsIcEENS_9allocatorIcEEEENS4_IS6_EEE8max_sizeEv, symObjAddr: 0x3D44, symBinAddr: 0x100006890, symSize: 0x60 }
  - { offsetInCU: 0x1313B, offset: 0x1313B, size: 0x8, addend: 0x0, symName: __ZNKSt3__16vectorINS_12basic_stringIcNS_11char_traitsIcEENS_9allocatorIcEEEENS4_IS6_EEE20__throw_length_errorB8ue170006Ev, symObjAddr: 0x3DA4, symBinAddr: 0x1000068F0, symSize: 0x1C }
  - { offsetInCU: 0x1316A, offset: 0x1316A, size: 0x8, addend: 0x0, symName: __ZNSt3__116allocator_traitsINS_9allocatorINS_12basic_stringIcNS_11char_traitsIcEENS1_IcEEEEEEE8max_sizeB8ue170006IS7_vEEmRKS7_, symObjAddr: 0x3E18, symBinAddr: 0x100006964, symSize: 0x24 }
  - { offsetInCU: 0x13198, offset: 0x13198, size: 0x8, addend: 0x0, symName: __ZNKSt3__16vectorINS_12basic_stringIcNS_11char_traitsIcEENS_9allocatorIcEEEENS4_IS6_EEE7__allocB8ue170006Ev, symObjAddr: 0x3E3C, symBinAddr: 0x100006988, symSize: 0x28 }
  - { offsetInCU: 0x131BD, offset: 0x131BD, size: 0x8, addend: 0x0, symName: __ZNSt3__114numeric_limitsIlE3maxB8ue170006Ev, symObjAddr: 0x3E64, symBinAddr: 0x1000069B0, symSize: 0x14 }
  - { offsetInCU: 0x131DB, offset: 0x131DB, size: 0x8, addend: 0x0, symName: __ZNKSt3__16__lessIvvEclB8ue170006ImmEEbRKT_RKT0_, symObjAddr: 0x3ECC, symBinAddr: 0x100006A18, symSize: 0x34 }
  - { offsetInCU: 0x1322E, offset: 0x1322E, size: 0x8, addend: 0x0, symName: __ZNKSt3__19allocatorINS_12basic_stringIcNS_11char_traitsIcEENS0_IcEEEEE8max_sizeB8ue170006Ev, symObjAddr: 0x3F00, symBinAddr: 0x100006A4C, symSize: 0x18 }
  - { offsetInCU: 0x13253, offset: 0x13253, size: 0x8, addend: 0x0, symName: __ZNKSt3__117__compressed_pairIPNS_12basic_stringIcNS_11char_traitsIcEENS_9allocatorIcEEEENS4_IS6_EEE6secondB8ue170006Ev, symObjAddr: 0x3F18, symBinAddr: 0x100006A64, symSize: 0x24 }
  - { offsetInCU: 0x13278, offset: 0x13278, size: 0x8, addend: 0x0, symName: __ZNKSt3__122__compressed_pair_elemINS_9allocatorINS_12basic_stringIcNS_11char_traitsIcEENS1_IcEEEEEELi1ELb1EE5__getB8ue170006Ev, symObjAddr: 0x3F3C, symBinAddr: 0x100006A88, symSize: 0x14 }
  - { offsetInCU: 0x1329D, offset: 0x1329D, size: 0x8, addend: 0x0, symName: __ZNSt3__123__libcpp_numeric_limitsIlLb1EE3maxB8ue170006Ev, symObjAddr: 0x3F50, symBinAddr: 0x100006A9C, symSize: 0x8 }
  - { offsetInCU: 0x132B1, offset: 0x132B1, size: 0x8, addend: 0x0, symName: __ZNSt3__114__split_bufferINS_12basic_stringIcNS_11char_traitsIcEENS_9allocatorIcEEEERNS4_IS6_EEEC2EmmS8_, symObjAddr: 0x3FAC, symBinAddr: 0x100006AF8, symSize: 0xE0 }
  - { offsetInCU: 0x13323, offset: 0x13323, size: 0x8, addend: 0x0, symName: __ZNSt3__117__compressed_pairIPNS_12basic_stringIcNS_11char_traitsIcEENS_9allocatorIcEEEERNS4_IS6_EEEC1B8ue170006IDnS9_EEOT_OT0_, symObjAddr: 0x408C, symBinAddr: 0x100006BD8, symSize: 0x3C }
  - { offsetInCU: 0x1337A, offset: 0x1337A, size: 0x8, addend: 0x0, symName: __ZNSt3__114__split_bufferINS_12basic_stringIcNS_11char_traitsIcEENS_9allocatorIcEEEERNS4_IS6_EEE7__allocB8ue170006Ev, symObjAddr: 0x4108, symBinAddr: 0x100006C54, symSize: 0x28 }
  - { offsetInCU: 0x1339F, offset: 0x1339F, size: 0x8, addend: 0x0, symName: __ZNSt3__114__split_bufferINS_12basic_stringIcNS_11char_traitsIcEENS_9allocatorIcEEEERNS4_IS6_EEE9__end_capB8ue170006Ev, symObjAddr: 0x4130, symBinAddr: 0x100006C7C, symSize: 0x28 }
  - { offsetInCU: 0x133C4, offset: 0x133C4, size: 0x8, addend: 0x0, symName: __ZNSt3__117__compressed_pairIPNS_12basic_stringIcNS_11char_traitsIcEENS_9allocatorIcEEEERNS4_IS6_EEEC2B8ue170006IDnS9_EEOT_OT0_, symObjAddr: 0x4158, symBinAddr: 0x100006CA4, symSize: 0x48 }
  - { offsetInCU: 0x1341B, offset: 0x1341B, size: 0x8, addend: 0x0, symName: __ZNSt3__122__compressed_pair_elemIRNS_9allocatorINS_12basic_stringIcNS_11char_traitsIcEENS1_IcEEEEEELi1ELb0EEC2B8ue170006IS8_vEEOT_, symObjAddr: 0x41A0, symBinAddr: 0x100006CEC, symSize: 0x20 }
  - { offsetInCU: 0x1345C, offset: 0x1345C, size: 0x8, addend: 0x0, symName: __ZNSt3__19allocatorINS_12basic_stringIcNS_11char_traitsIcEENS0_IcEEEEE8allocateB8ue170006Em, symObjAddr: 0x41C0, symBinAddr: 0x100006D0C, symSize: 0x5C }
  - { offsetInCU: 0x1348F, offset: 0x1348F, size: 0x8, addend: 0x0, symName: __ZNSt3__117__compressed_pairIPNS_12basic_stringIcNS_11char_traitsIcEENS_9allocatorIcEEEERNS4_IS6_EEE6secondB8ue170006Ev, symObjAddr: 0x421C, symBinAddr: 0x100006D68, symSize: 0x28 }
  - { offsetInCU: 0x134B4, offset: 0x134B4, size: 0x8, addend: 0x0, symName: __ZNSt3__122__compressed_pair_elemIRNS_9allocatorINS_12basic_stringIcNS_11char_traitsIcEENS1_IcEEEEEELi1ELb0EE5__getB8ue170006Ev, symObjAddr: 0x4244, symBinAddr: 0x100006D90, symSize: 0x18 }
  - { offsetInCU: 0x134D9, offset: 0x134D9, size: 0x8, addend: 0x0, symName: __ZNSt3__117__compressed_pairIPNS_12basic_stringIcNS_11char_traitsIcEENS_9allocatorIcEEEERNS4_IS6_EEE5firstB8ue170006Ev, symObjAddr: 0x425C, symBinAddr: 0x100006DA8, symSize: 0x24 }
  - { offsetInCU: 0x134FE, offset: 0x134FE, size: 0x8, addend: 0x0, symName: __ZNSt3__116reverse_iteratorIPNS_12basic_stringIcNS_11char_traitsIcEENS_9allocatorIcEEEEEC1B8ue170006ES7_, symObjAddr: 0x43AC, symBinAddr: 0x100006EF8, symSize: 0x34 }
  - { offsetInCU: 0x13535, offset: 0x13535, size: 0x8, addend: 0x0, symName: __ZNKSt3__116reverse_iteratorIPNS_12basic_stringIcNS_11char_traitsIcEENS_9allocatorIcEEEEE4baseB8ue170006Ev, symObjAddr: 0x43E0, symBinAddr: 0x100006F2C, symSize: 0x18 }
  - { offsetInCU: 0x1355A, offset: 0x1355A, size: 0x8, addend: 0x0, symName: __ZNKSt3__16vectorINS_12basic_stringIcNS_11char_traitsIcEENS_9allocatorIcEEEENS4_IS6_EEE14__annotate_newB8ue170006Em, symObjAddr: 0x4434, symBinAddr: 0x100006F80, symSize: 0xC8 }
  - { offsetInCU: 0x1358E, offset: 0x1358E, size: 0x8, addend: 0x0, symName: __ZNSt3__129_AllocatorDestroyRangeReverseINS_9allocatorINS_12basic_stringIcNS_11char_traitsIcEENS1_IcEEEEEENS_16reverse_iteratorIPS6_EEEC1B8ue170006ERS7_RSA_SD_, symObjAddr: 0x4548, symBinAddr: 0x100007094, symSize: 0x44 }
  - { offsetInCU: 0x135E9, offset: 0x135E9, size: 0x8, addend: 0x0, symName: __ZNSt3__116allocator_traitsINS_9allocatorINS_12basic_stringIcNS_11char_traitsIcEENS1_IcEEEEEEE9constructB8ue170006IS6_JS6_EvEEvRS7_PT_DpOT0_, symObjAddr: 0x45D4, symBinAddr: 0x100007120, symSize: 0x34 }
  - { offsetInCU: 0x13640, offset: 0x13640, size: 0x8, addend: 0x0, symName: __ZNKSt3__116reverse_iteratorIPNS_12basic_stringIcNS_11char_traitsIcEENS_9allocatorIcEEEEEdeB8ue170006Ev, symObjAddr: 0x462C, symBinAddr: 0x100007178, symSize: 0x28 }
  - { offsetInCU: 0x13673, offset: 0x13673, size: 0x8, addend: 0x0, symName: __ZNSt3__116reverse_iteratorIPNS_12basic_stringIcNS_11char_traitsIcEENS_9allocatorIcEEEEEppB8ue170006Ev, symObjAddr: 0x4654, symBinAddr: 0x1000071A0, symSize: 0x20 }
  - { offsetInCU: 0x13698, offset: 0x13698, size: 0x8, addend: 0x0, symName: __ZNSt3__128__exception_guard_exceptionsINS_29_AllocatorDestroyRangeReverseINS_9allocatorINS_12basic_stringIcNS_11char_traitsIcEENS2_IcEEEEEENS_16reverse_iteratorIPS7_EEEEE10__completeB8ue170006Ev, symObjAddr: 0x4674, symBinAddr: 0x1000071C0, symSize: 0x1C }
  - { offsetInCU: 0x136BD, offset: 0x136BD, size: 0x8, addend: 0x0, symName: __ZNSt3__128__exception_guard_exceptionsINS_29_AllocatorDestroyRangeReverseINS_9allocatorINS_12basic_stringIcNS_11char_traitsIcEENS2_IcEEEEEENS_16reverse_iteratorIPS7_EEEEED1B8ue170006Ev, symObjAddr: 0x4690, symBinAddr: 0x1000071DC, symSize: 0x2C }
  - { offsetInCU: 0x136E6, offset: 0x136E6, size: 0x8, addend: 0x0, symName: __ZNSt3__128__exception_guard_exceptionsINS_29_AllocatorDestroyRangeReverseINS_9allocatorINS_12basic_stringIcNS_11char_traitsIcEENS2_IcEEEEEENS_16reverse_iteratorIPS7_EEEEEC1B8ue170006ESC_, symObjAddr: 0x46BC, symBinAddr: 0x100007208, symSize: 0x34 }
  - { offsetInCU: 0x1371E, offset: 0x1371E, size: 0x8, addend: 0x0, symName: __ZNSt3__128__exception_guard_exceptionsINS_29_AllocatorDestroyRangeReverseINS_9allocatorINS_12basic_stringIcNS_11char_traitsIcEENS2_IcEEEEEENS_16reverse_iteratorIPS7_EEEEEC2B8ue170006ESC_, symObjAddr: 0x46F0, symBinAddr: 0x10000723C, symSize: 0x30 }
  - { offsetInCU: 0x13756, offset: 0x13756, size: 0x8, addend: 0x0, symName: __ZNSt3__129_AllocatorDestroyRangeReverseINS_9allocatorINS_12basic_stringIcNS_11char_traitsIcEENS1_IcEEEEEENS_16reverse_iteratorIPS6_EEEC2B8ue170006ERS7_RSA_SD_, symObjAddr: 0x4720, symBinAddr: 0x10000726C, symSize: 0x38 }
  - { offsetInCU: 0x137AC, offset: 0x137AC, size: 0x8, addend: 0x0, symName: __ZNSt3__19allocatorINS_12basic_stringIcNS_11char_traitsIcEENS0_IcEEEEE9constructB8ue170006IS5_JS5_EEEvPT_DpOT0_, symObjAddr: 0x4758, symBinAddr: 0x1000072A4, symSize: 0x30 }
  - { offsetInCU: 0x13801, offset: 0x13801, size: 0x8, addend: 0x0, symName: __ZNSt3__112basic_stringIcNS_11char_traitsIcEENS_9allocatorIcEEEC1B8ue170006EOS5_, symObjAddr: 0x4788, symBinAddr: 0x1000072D4, symSize: 0x34 }
  - { offsetInCU: 0x13839, offset: 0x13839, size: 0x8, addend: 0x0, symName: __ZNSt3__112basic_stringIcNS_11char_traitsIcEENS_9allocatorIcEEEC2B8ue170006EOS5_, symObjAddr: 0x47BC, symBinAddr: 0x100007308, symSize: 0x50 }
  - { offsetInCU: 0x13871, offset: 0x13871, size: 0x8, addend: 0x0, symName: __ZNSt3__112basic_stringIcNS_11char_traitsIcEENS_9allocatorIcEEE14__default_initB8ue170006Ev, symObjAddr: 0x480C, symBinAddr: 0x100007358, symSize: 0x40 }
  - { offsetInCU: 0x13896, offset: 0x13896, size: 0x8, addend: 0x0, symName: __ZNSt3__117__compressed_pairINS_12basic_stringIcNS_11char_traitsIcEENS_9allocatorIcEEE5__repES5_E5firstB8ue170006Ev, symObjAddr: 0x484C, symBinAddr: 0x100007398, symSize: 0x24 }
  - { offsetInCU: 0x138BB, offset: 0x138BB, size: 0x8, addend: 0x0, symName: __ZNSt3__122__compressed_pair_elemINS_12basic_stringIcNS_11char_traitsIcEENS_9allocatorIcEEE5__repELi0ELb0EE5__getB8ue170006Ev, symObjAddr: 0x4870, symBinAddr: 0x1000073BC, symSize: 0x14 }
  - { offsetInCU: 0x138E5, offset: 0x138E5, size: 0x8, addend: 0x0, symName: __ZNSt3__119__to_address_helperINS_16reverse_iteratorIPNS_12basic_stringIcNS_11char_traitsIcEENS_9allocatorIcEEEEEEvE6__callB8ue170006ERKS9_, symObjAddr: 0x4884, symBinAddr: 0x1000073D0, symSize: 0x38 }
  - { offsetInCU: 0x13908, offset: 0x13908, size: 0x8, addend: 0x0, symName: __ZNKSt3__116reverse_iteratorIPNS_12basic_stringIcNS_11char_traitsIcEENS_9allocatorIcEEEEEptB8ue170006Ev, symObjAddr: 0x48BC, symBinAddr: 0x100007408, symSize: 0x24 }
  - { offsetInCU: 0x1392D, offset: 0x1392D, size: 0x8, addend: 0x0, symName: __ZNSt3__128__exception_guard_exceptionsINS_29_AllocatorDestroyRangeReverseINS_9allocatorINS_12basic_stringIcNS_11char_traitsIcEENS2_IcEEEEEENS_16reverse_iteratorIPS7_EEEEED2B8ue170006Ev, symObjAddr: 0x48E0, symBinAddr: 0x10000742C, symSize: 0x50 }
  - { offsetInCU: 0x13956, offset: 0x13956, size: 0x8, addend: 0x0, symName: __ZNKSt3__129_AllocatorDestroyRangeReverseINS_9allocatorINS_12basic_stringIcNS_11char_traitsIcEENS1_IcEEEEEENS_16reverse_iteratorIPS6_EEEclB8ue170006Ev, symObjAddr: 0x4930, symBinAddr: 0x10000747C, symSize: 0xB4 }
  - { offsetInCU: 0x1397C, offset: 0x1397C, size: 0x8, addend: 0x0, symName: __ZNSt3__116reverse_iteratorINS0_IPNS_12basic_stringIcNS_11char_traitsIcEENS_9allocatorIcEEEEEEEC1B8ue170006ES8_, symObjAddr: 0x4A54, symBinAddr: 0x1000075A0, symSize: 0x3C }
  - { offsetInCU: 0x139B3, offset: 0x139B3, size: 0x8, addend: 0x0, symName: __ZNSt3__116reverse_iteratorINS0_IPNS_12basic_stringIcNS_11char_traitsIcEENS_9allocatorIcEEEEEEEppB8ue170006Ev, symObjAddr: 0x4B14, symBinAddr: 0x100007660, symSize: 0x30 }
  - { offsetInCU: 0x139D8, offset: 0x139D8, size: 0x8, addend: 0x0, symName: __ZNKSt3__116reverse_iteratorINS0_IPNS_12basic_stringIcNS_11char_traitsIcEENS_9allocatorIcEEEEEEE4baseB8ue170006Ev, symObjAddr: 0x4B44, symBinAddr: 0x100007690, symSize: 0x24 }
  - { offsetInCU: 0x13A02, offset: 0x13A02, size: 0x8, addend: 0x0, symName: __ZNSt3__119__to_address_helperINS_16reverse_iteratorINS1_IPNS_12basic_stringIcNS_11char_traitsIcEENS_9allocatorIcEEEEEEEEvE6__callB8ue170006ERKSA_, symObjAddr: 0x4B68, symBinAddr: 0x1000076B4, symSize: 0x38 }
  - { offsetInCU: 0x13A25, offset: 0x13A25, size: 0x8, addend: 0x0, symName: __ZNKSt3__116reverse_iteratorINS0_IPNS_12basic_stringIcNS_11char_traitsIcEENS_9allocatorIcEEEEEEEptB8ue170006Ev, symObjAddr: 0x4BA0, symBinAddr: 0x1000076EC, symSize: 0x24 }
  - { offsetInCU: 0x13A4A, offset: 0x13A4A, size: 0x8, addend: 0x0, symName: __ZNKSt3__116reverse_iteratorINS0_IPNS_12basic_stringIcNS_11char_traitsIcEENS_9allocatorIcEEEEEEEdeB8ue170006Ev, symObjAddr: 0x4BC4, symBinAddr: 0x100007710, symSize: 0x34 }
  - { offsetInCU: 0x13A7D, offset: 0x13A7D, size: 0x8, addend: 0x0, symName: __ZNSt3__116reverse_iteratorIPNS_12basic_stringIcNS_11char_traitsIcEENS_9allocatorIcEEEEEmmB8ue170006Ev, symObjAddr: 0x4BF8, symBinAddr: 0x100007744, symSize: 0x20 }
  - { offsetInCU: 0x13AA2, offset: 0x13AA2, size: 0x8, addend: 0x0, symName: __ZNSt3__116reverse_iteratorINS0_IPNS_12basic_stringIcNS_11char_traitsIcEENS_9allocatorIcEEEEEEEC2B8ue170006ES8_, symObjAddr: 0x4C18, symBinAddr: 0x100007764, symSize: 0x2C }
  - { offsetInCU: 0x13AD9, offset: 0x13AD9, size: 0x8, addend: 0x0, symName: __ZNSt3__116reverse_iteratorIPNS_12basic_stringIcNS_11char_traitsIcEENS_9allocatorIcEEEEEC2B8ue170006ES7_, symObjAddr: 0x4C44, symBinAddr: 0x100007790, symSize: 0x28 }
  - { offsetInCU: 0x13B10, offset: 0x13B10, size: 0x8, addend: 0x0, symName: __ZNSt3__114__split_bufferINS_12basic_stringIcNS_11char_traitsIcEENS_9allocatorIcEEEERNS4_IS6_EEED2Ev, symObjAddr: 0x4C6C, symBinAddr: 0x1000077B8, symSize: 0x8C }
  - { offsetInCU: 0x13B3B, offset: 0x13B3B, size: 0x8, addend: 0x0, symName: __ZNSt3__114__split_bufferINS_12basic_stringIcNS_11char_traitsIcEENS_9allocatorIcEEEERNS4_IS6_EEE5clearB8ue170006Ev, symObjAddr: 0x4CF8, symBinAddr: 0x100007844, symSize: 0x28 }
  - { offsetInCU: 0x13B60, offset: 0x13B60, size: 0x8, addend: 0x0, symName: __ZNKSt3__114__split_bufferINS_12basic_stringIcNS_11char_traitsIcEENS_9allocatorIcEEEERNS4_IS6_EEE8capacityB8ue170006Ev, symObjAddr: 0x4D20, symBinAddr: 0x10000786C, symSize: 0x40 }
  - { offsetInCU: 0x13B85, offset: 0x13B85, size: 0x8, addend: 0x0, symName: __ZNSt3__114__split_bufferINS_12basic_stringIcNS_11char_traitsIcEENS_9allocatorIcEEEERNS4_IS6_EEE17__destruct_at_endB8ue170006EPS6_, symObjAddr: 0x4D60, symBinAddr: 0x1000078AC, symSize: 0x2C }
  - { offsetInCU: 0x13BB7, offset: 0x13BB7, size: 0x8, addend: 0x0, symName: __ZNSt3__114__split_bufferINS_12basic_stringIcNS_11char_traitsIcEENS_9allocatorIcEEEERNS4_IS6_EEE17__destruct_at_endB8ue170006EPS6_NS_17integral_constantIbLb0EEE, symObjAddr: 0x4D8C, symBinAddr: 0x1000078D8, symSize: 0x80 }
  - { offsetInCU: 0x13BF7, offset: 0x13BF7, size: 0x8, addend: 0x0, symName: __ZNKSt3__114__split_bufferINS_12basic_stringIcNS_11char_traitsIcEENS_9allocatorIcEEEERNS4_IS6_EEE9__end_capB8ue170006Ev, symObjAddr: 0x4E0C, symBinAddr: 0x100007958, symSize: 0x28 }
  - { offsetInCU: 0x13C1C, offset: 0x13C1C, size: 0x8, addend: 0x0, symName: __ZNKSt3__117__compressed_pairIPNS_12basic_stringIcNS_11char_traitsIcEENS_9allocatorIcEEEERNS4_IS6_EEE5firstB8ue170006Ev, symObjAddr: 0x4E34, symBinAddr: 0x100007980, symSize: 0x24 }
  - { offsetInCU: 0x13C41, offset: 0x13C41, size: 0x8, addend: 0x0, symName: __ZNSt3__16vectorINS0_INS_12basic_stringIcNS_11char_traitsIcEENS_9allocatorIcEEEENS4_IS6_EEEENS4_IS8_EEE9__end_capB8ue170006Ev, symObjAddr: 0x4E58, symBinAddr: 0x1000079A4, symSize: 0x28 }
  - { offsetInCU: 0x13C66, offset: 0x13C66, size: 0x8, addend: 0x0, symName: __ZNSt3__16vectorINS0_INS_12basic_stringIcNS_11char_traitsIcEENS_9allocatorIcEEEENS4_IS6_EEEENS4_IS8_EEE22__construct_one_at_endB8ue170006IJRKS8_EEEvDpOT_, symObjAddr: 0x4E80, symBinAddr: 0x1000079CC, symSize: 0x90 }
  - { offsetInCU: 0x13CB3, offset: 0x13CB3, size: 0x8, addend: 0x0, symName: __ZNSt3__16vectorINS0_INS_12basic_stringIcNS_11char_traitsIcEENS_9allocatorIcEEEENS4_IS6_EEEENS4_IS8_EEE21__push_back_slow_pathIRKS8_EEvOT_, symObjAddr: 0x4F10, symBinAddr: 0x100007A5C, symSize: 0xD8 }
  - { offsetInCU: 0x13D10, offset: 0x13D10, size: 0x8, addend: 0x0, symName: __ZNSt3__117__compressed_pairIPNS_6vectorINS_12basic_stringIcNS_11char_traitsIcEENS_9allocatorIcEEEENS5_IS7_EEEENS5_IS9_EEE5firstB8ue170006Ev, symObjAddr: 0x4FE8, symBinAddr: 0x100007B34, symSize: 0x24 }
  - { offsetInCU: 0x13D35, offset: 0x13D35, size: 0x8, addend: 0x0, symName: __ZNSt3__122__compressed_pair_elemIPNS_6vectorINS_12basic_stringIcNS_11char_traitsIcEENS_9allocatorIcEEEENS5_IS7_EEEELi0ELb0EE5__getB8ue170006Ev, symObjAddr: 0x500C, symBinAddr: 0x100007B58, symSize: 0x14 }
  - { offsetInCU: 0x13D73, offset: 0x13D73, size: 0x8, addend: 0x0, symName: __ZNSt3__16vectorINS0_INS_12basic_stringIcNS_11char_traitsIcEENS_9allocatorIcEEEENS4_IS6_EEEENS4_IS8_EEE21_ConstructTransactionC1B8ue170006ERSA_m, symObjAddr: 0x5020, symBinAddr: 0x100007B6C, symSize: 0x3C }
  - { offsetInCU: 0x13DBA, offset: 0x13DBA, size: 0x8, addend: 0x0, symName: __ZNSt3__116allocator_traitsINS_9allocatorINS_6vectorINS_12basic_stringIcNS_11char_traitsIcEENS1_IcEEEENS1_IS7_EEEEEEE9constructB8ue170006IS9_JRKS9_EvEEvRSA_PT_DpOT0_, symObjAddr: 0x505C, symBinAddr: 0x100007BA8, symSize: 0x34 }
  - { offsetInCU: 0x13E11, offset: 0x13E11, size: 0x8, addend: 0x0, symName: __ZNSt3__16vectorINS0_INS_12basic_stringIcNS_11char_traitsIcEENS_9allocatorIcEEEENS4_IS6_EEEENS4_IS8_EEE21_ConstructTransactionD1B8ue170006Ev, symObjAddr: 0x5090, symBinAddr: 0x100007BDC, symSize: 0x2C }
  - { offsetInCU: 0x13E3A, offset: 0x13E3A, size: 0x8, addend: 0x0, symName: __ZNSt3__16vectorINS0_INS_12basic_stringIcNS_11char_traitsIcEENS_9allocatorIcEEEENS4_IS6_EEEENS4_IS8_EEE21_ConstructTransactionC2B8ue170006ERSA_m, symObjAddr: 0x50BC, symBinAddr: 0x100007C08, symSize: 0x4C }
  - { offsetInCU: 0x13E81, offset: 0x13E81, size: 0x8, addend: 0x0, symName: __ZNSt3__19allocatorINS_6vectorINS_12basic_stringIcNS_11char_traitsIcEENS0_IcEEEENS0_IS6_EEEEE9constructB8ue170006IS8_JRKS8_EEEvPT_DpOT0_, symObjAddr: 0x5108, symBinAddr: 0x100007C54, symSize: 0x30 }
  - { offsetInCU: 0x13ED6, offset: 0x13ED6, size: 0x8, addend: 0x0, symName: __ZNSt3__16vectorINS0_INS_12basic_stringIcNS_11char_traitsIcEENS_9allocatorIcEEEENS4_IS6_EEEENS4_IS8_EEE21_ConstructTransactionD2B8ue170006Ev, symObjAddr: 0x5138, symBinAddr: 0x100007C84, symSize: 0x20 }
  - { offsetInCU: 0x13EFE, offset: 0x13EFE, size: 0x8, addend: 0x0, symName: __ZNKSt3__16vectorINS0_INS_12basic_stringIcNS_11char_traitsIcEENS_9allocatorIcEEEENS4_IS6_EEEENS4_IS8_EEE11__recommendB8ue170006Em, symObjAddr: 0x5158, symBinAddr: 0x100007CA4, symSize: 0xB4 }
  - { offsetInCU: 0x13F52, offset: 0x13F52, size: 0x8, addend: 0x0, symName: __ZNSt3__114__split_bufferINS_6vectorINS_12basic_stringIcNS_11char_traitsIcEENS_9allocatorIcEEEENS5_IS7_EEEERNS5_IS9_EEEC1EmmSB_, symObjAddr: 0x520C, symBinAddr: 0x100007D58, symSize: 0x44 }
  - { offsetInCU: 0x13FA7, offset: 0x13FA7, size: 0x8, addend: 0x0, symName: __ZNSt3__114__split_bufferINS_6vectorINS_12basic_stringIcNS_11char_traitsIcEENS_9allocatorIcEEEENS5_IS7_EEEERNS5_IS9_EEED1Ev, symObjAddr: 0x5360, symBinAddr: 0x100007EAC, symSize: 0x2C }
  - { offsetInCU: 0x13FD1, offset: 0x13FD1, size: 0x8, addend: 0x0, symName: __ZNKSt3__16vectorINS0_INS_12basic_stringIcNS_11char_traitsIcEENS_9allocatorIcEEEENS4_IS6_EEEENS4_IS8_EEE8max_sizeEv, symObjAddr: 0x538C, symBinAddr: 0x100007ED8, symSize: 0x60 }
  - { offsetInCU: 0x13FF8, offset: 0x13FF8, size: 0x8, addend: 0x0, symName: __ZNKSt3__16vectorINS0_INS_12basic_stringIcNS_11char_traitsIcEENS_9allocatorIcEEEENS4_IS6_EEEENS4_IS8_EEE20__throw_length_errorB8ue170006Ev, symObjAddr: 0x53EC, symBinAddr: 0x100007F38, symSize: 0x1C }
  - { offsetInCU: 0x14027, offset: 0x14027, size: 0x8, addend: 0x0, symName: __ZNSt3__116allocator_traitsINS_9allocatorINS_6vectorINS_12basic_stringIcNS_11char_traitsIcEENS1_IcEEEENS1_IS7_EEEEEEE8max_sizeB8ue170006ISA_vEEmRKSA_, symObjAddr: 0x5408, symBinAddr: 0x100007F54, symSize: 0x24 }
  - { offsetInCU: 0x14055, offset: 0x14055, size: 0x8, addend: 0x0, symName: __ZNKSt3__16vectorINS0_INS_12basic_stringIcNS_11char_traitsIcEENS_9allocatorIcEEEENS4_IS6_EEEENS4_IS8_EEE7__allocB8ue170006Ev, symObjAddr: 0x542C, symBinAddr: 0x100007F78, symSize: 0x28 }
  - { offsetInCU: 0x1407A, offset: 0x1407A, size: 0x8, addend: 0x0, symName: __ZNKSt3__19allocatorINS_6vectorINS_12basic_stringIcNS_11char_traitsIcEENS0_IcEEEENS0_IS6_EEEEE8max_sizeB8ue170006Ev, symObjAddr: 0x5454, symBinAddr: 0x100007FA0, symSize: 0x18 }
  - { offsetInCU: 0x1409F, offset: 0x1409F, size: 0x8, addend: 0x0, symName: __ZNKSt3__117__compressed_pairIPNS_6vectorINS_12basic_stringIcNS_11char_traitsIcEENS_9allocatorIcEEEENS5_IS7_EEEENS5_IS9_EEE6secondB8ue170006Ev, symObjAddr: 0x546C, symBinAddr: 0x100007FB8, symSize: 0x24 }
  - { offsetInCU: 0x140C4, offset: 0x140C4, size: 0x8, addend: 0x0, symName: __ZNKSt3__122__compressed_pair_elemINS_9allocatorINS_6vectorINS_12basic_stringIcNS_11char_traitsIcEENS1_IcEEEENS1_IS7_EEEEEELi1ELb1EE5__getB8ue170006Ev, symObjAddr: 0x5490, symBinAddr: 0x100007FDC, symSize: 0x14 }
  - { offsetInCU: 0x140E9, offset: 0x140E9, size: 0x8, addend: 0x0, symName: __ZNSt3__114__split_bufferINS_6vectorINS_12basic_stringIcNS_11char_traitsIcEENS_9allocatorIcEEEENS5_IS7_EEEERNS5_IS9_EEEC2EmmSB_, symObjAddr: 0x54A4, symBinAddr: 0x100007FF0, symSize: 0xE0 }
  - { offsetInCU: 0x1415B, offset: 0x1415B, size: 0x8, addend: 0x0, symName: __ZNSt3__117__compressed_pairIPNS_6vectorINS_12basic_stringIcNS_11char_traitsIcEENS_9allocatorIcEEEENS5_IS7_EEEERNS5_IS9_EEEC1B8ue170006IDnSC_EEOT_OT0_, symObjAddr: 0x5584, symBinAddr: 0x1000080D0, symSize: 0x3C }
  - { offsetInCU: 0x141B2, offset: 0x141B2, size: 0x8, addend: 0x0, symName: __ZNSt3__114__split_bufferINS_6vectorINS_12basic_stringIcNS_11char_traitsIcEENS_9allocatorIcEEEENS5_IS7_EEEERNS5_IS9_EEE7__allocB8ue170006Ev, symObjAddr: 0x5600, symBinAddr: 0x10000814C, symSize: 0x28 }
  - { offsetInCU: 0x141D7, offset: 0x141D7, size: 0x8, addend: 0x0, symName: __ZNSt3__114__split_bufferINS_6vectorINS_12basic_stringIcNS_11char_traitsIcEENS_9allocatorIcEEEENS5_IS7_EEEERNS5_IS9_EEE9__end_capB8ue170006Ev, symObjAddr: 0x5628, symBinAddr: 0x100008174, symSize: 0x28 }
  - { offsetInCU: 0x141FC, offset: 0x141FC, size: 0x8, addend: 0x0, symName: __ZNSt3__117__compressed_pairIPNS_6vectorINS_12basic_stringIcNS_11char_traitsIcEENS_9allocatorIcEEEENS5_IS7_EEEERNS5_IS9_EEEC2B8ue170006IDnSC_EEOT_OT0_, symObjAddr: 0x5650, symBinAddr: 0x10000819C, symSize: 0x48 }
  - { offsetInCU: 0x14253, offset: 0x14253, size: 0x8, addend: 0x0, symName: __ZNSt3__122__compressed_pair_elemIRNS_9allocatorINS_6vectorINS_12basic_stringIcNS_11char_traitsIcEENS1_IcEEEENS1_IS7_EEEEEELi1ELb0EEC2B8ue170006ISB_vEEOT_, symObjAddr: 0x5698, symBinAddr: 0x1000081E4, symSize: 0x20 }
  - { offsetInCU: 0x14294, offset: 0x14294, size: 0x8, addend: 0x0, symName: __ZNSt3__19allocatorINS_6vectorINS_12basic_stringIcNS_11char_traitsIcEENS0_IcEEEENS0_IS6_EEEEE8allocateB8ue170006Em, symObjAddr: 0x56B8, symBinAddr: 0x100008204, symSize: 0x5C }
  - { offsetInCU: 0x142C7, offset: 0x142C7, size: 0x8, addend: 0x0, symName: __ZNSt3__117__compressed_pairIPNS_6vectorINS_12basic_stringIcNS_11char_traitsIcEENS_9allocatorIcEEEENS5_IS7_EEEERNS5_IS9_EEE6secondB8ue170006Ev, symObjAddr: 0x5714, symBinAddr: 0x100008260, symSize: 0x28 }
  - { offsetInCU: 0x142EC, offset: 0x142EC, size: 0x8, addend: 0x0, symName: __ZNSt3__122__compressed_pair_elemIRNS_9allocatorINS_6vectorINS_12basic_stringIcNS_11char_traitsIcEENS1_IcEEEENS1_IS7_EEEEEELi1ELb0EE5__getB8ue170006Ev, symObjAddr: 0x573C, symBinAddr: 0x100008288, symSize: 0x18 }
  - { offsetInCU: 0x14311, offset: 0x14311, size: 0x8, addend: 0x0, symName: __ZNSt3__117__compressed_pairIPNS_6vectorINS_12basic_stringIcNS_11char_traitsIcEENS_9allocatorIcEEEENS5_IS7_EEEERNS5_IS9_EEE5firstB8ue170006Ev, symObjAddr: 0x5754, symBinAddr: 0x1000082A0, symSize: 0x24 }
  - { offsetInCU: 0x14336, offset: 0x14336, size: 0x8, addend: 0x0, symName: __ZNSt3__116reverse_iteratorIPNS_6vectorINS_12basic_stringIcNS_11char_traitsIcEENS_9allocatorIcEEEENS5_IS7_EEEEEC1B8ue170006ESA_, symObjAddr: 0x58A4, symBinAddr: 0x1000083F0, symSize: 0x34 }
  - { offsetInCU: 0x1436D, offset: 0x1436D, size: 0x8, addend: 0x0, symName: __ZNKSt3__116reverse_iteratorIPNS_6vectorINS_12basic_stringIcNS_11char_traitsIcEENS_9allocatorIcEEEENS5_IS7_EEEEE4baseB8ue170006Ev, symObjAddr: 0x58D8, symBinAddr: 0x100008424, symSize: 0x18 }
  - { offsetInCU: 0x14392, offset: 0x14392, size: 0x8, addend: 0x0, symName: __ZNKSt3__16vectorINS0_INS_12basic_stringIcNS_11char_traitsIcEENS_9allocatorIcEEEENS4_IS6_EEEENS4_IS8_EEE14__annotate_newB8ue170006Em, symObjAddr: 0x592C, symBinAddr: 0x100008478, symSize: 0xC8 }
  - { offsetInCU: 0x143C6, offset: 0x143C6, size: 0x8, addend: 0x0, symName: __ZNSt3__129_AllocatorDestroyRangeReverseINS_9allocatorINS_6vectorINS_12basic_stringIcNS_11char_traitsIcEENS1_IcEEEENS1_IS7_EEEEEENS_16reverse_iteratorIPS9_EEEC1B8ue170006ERSA_RSD_SG_, symObjAddr: 0x5A40, symBinAddr: 0x10000858C, symSize: 0x44 }
  - { offsetInCU: 0x1441C, offset: 0x1441C, size: 0x8, addend: 0x0, symName: __ZNSt3__116allocator_traitsINS_9allocatorINS_6vectorINS_12basic_stringIcNS_11char_traitsIcEENS1_IcEEEENS1_IS7_EEEEEEE9constructB8ue170006IS9_JS9_EvEEvRSA_PT_DpOT0_, symObjAddr: 0x5ACC, symBinAddr: 0x100008618, symSize: 0x34 }
  - { offsetInCU: 0x14473, offset: 0x14473, size: 0x8, addend: 0x0, symName: __ZNKSt3__116reverse_iteratorIPNS_6vectorINS_12basic_stringIcNS_11char_traitsIcEENS_9allocatorIcEEEENS5_IS7_EEEEEdeB8ue170006Ev, symObjAddr: 0x5B24, symBinAddr: 0x100008670, symSize: 0x28 }
  - { offsetInCU: 0x144A6, offset: 0x144A6, size: 0x8, addend: 0x0, symName: __ZNSt3__116reverse_iteratorIPNS_6vectorINS_12basic_stringIcNS_11char_traitsIcEENS_9allocatorIcEEEENS5_IS7_EEEEEppB8ue170006Ev, symObjAddr: 0x5B4C, symBinAddr: 0x100008698, symSize: 0x20 }
  - { offsetInCU: 0x144CB, offset: 0x144CB, size: 0x8, addend: 0x0, symName: __ZNSt3__128__exception_guard_exceptionsINS_29_AllocatorDestroyRangeReverseINS_9allocatorINS_6vectorINS_12basic_stringIcNS_11char_traitsIcEENS2_IcEEEENS2_IS8_EEEEEENS_16reverse_iteratorIPSA_EEEEE10__completeB8ue170006Ev, symObjAddr: 0x5B6C, symBinAddr: 0x1000086B8, symSize: 0x1C }
  - { offsetInCU: 0x144F0, offset: 0x144F0, size: 0x8, addend: 0x0, symName: __ZNSt3__128__exception_guard_exceptionsINS_29_AllocatorDestroyRangeReverseINS_9allocatorINS_6vectorINS_12basic_stringIcNS_11char_traitsIcEENS2_IcEEEENS2_IS8_EEEEEENS_16reverse_iteratorIPSA_EEEEED1B8ue170006Ev, symObjAddr: 0x5B88, symBinAddr: 0x1000086D4, symSize: 0x2C }
  - { offsetInCU: 0x14519, offset: 0x14519, size: 0x8, addend: 0x0, symName: __ZNSt3__128__exception_guard_exceptionsINS_29_AllocatorDestroyRangeReverseINS_9allocatorINS_6vectorINS_12basic_stringIcNS_11char_traitsIcEENS2_IcEEEENS2_IS8_EEEEEENS_16reverse_iteratorIPSA_EEEEEC1B8ue170006ESF_, symObjAddr: 0x5BB4, symBinAddr: 0x100008700, symSize: 0x34 }
  - { offsetInCU: 0x14551, offset: 0x14551, size: 0x8, addend: 0x0, symName: __ZNSt3__128__exception_guard_exceptionsINS_29_AllocatorDestroyRangeReverseINS_9allocatorINS_6vectorINS_12basic_stringIcNS_11char_traitsIcEENS2_IcEEEENS2_IS8_EEEEEENS_16reverse_iteratorIPSA_EEEEEC2B8ue170006ESF_, symObjAddr: 0x5BE8, symBinAddr: 0x100008734, symSize: 0x30 }
  - { offsetInCU: 0x14589, offset: 0x14589, size: 0x8, addend: 0x0, symName: __ZNSt3__129_AllocatorDestroyRangeReverseINS_9allocatorINS_6vectorINS_12basic_stringIcNS_11char_traitsIcEENS1_IcEEEENS1_IS7_EEEEEENS_16reverse_iteratorIPS9_EEEC2B8ue170006ERSA_RSD_SG_, symObjAddr: 0x5C18, symBinAddr: 0x100008764, symSize: 0x38 }
  - { offsetInCU: 0x145DF, offset: 0x145DF, size: 0x8, addend: 0x0, symName: __ZNSt3__19allocatorINS_6vectorINS_12basic_stringIcNS_11char_traitsIcEENS0_IcEEEENS0_IS6_EEEEE9constructB8ue170006IS8_JS8_EEEvPT_DpOT0_, symObjAddr: 0x5C50, symBinAddr: 0x10000879C, symSize: 0x30 }
  - { offsetInCU: 0x14634, offset: 0x14634, size: 0x8, addend: 0x0, symName: __ZNSt3__16vectorINS_12basic_stringIcNS_11char_traitsIcEENS_9allocatorIcEEEENS4_IS6_EEEC1B8ue170006EOS8_, symObjAddr: 0x5C80, symBinAddr: 0x1000087CC, symSize: 0x34 }
  - { offsetInCU: 0x1466E, offset: 0x1466E, size: 0x8, addend: 0x0, symName: __ZNSt3__16vectorINS_12basic_stringIcNS_11char_traitsIcEENS_9allocatorIcEEEENS4_IS6_EEEC2B8ue170006EOS8_, symObjAddr: 0x5CB4, symBinAddr: 0x100008800, symSize: 0xC4 }
  - { offsetInCU: 0x146AD, offset: 0x146AD, size: 0x8, addend: 0x0, symName: __ZNSt3__117__compressed_pairIPNS_12basic_stringIcNS_11char_traitsIcEENS_9allocatorIcEEEENS4_IS6_EEEC1B8ue170006IDnS8_EEOT_OT0_, symObjAddr: 0x5D78, symBinAddr: 0x1000088C4, symSize: 0x3C }
  - { offsetInCU: 0x14704, offset: 0x14704, size: 0x8, addend: 0x0, symName: __ZNSt3__117__compressed_pairIPNS_12basic_stringIcNS_11char_traitsIcEENS_9allocatorIcEEEENS4_IS6_EEEC2B8ue170006IDnS8_EEOT_OT0_, symObjAddr: 0x5DB4, symBinAddr: 0x100008900, symSize: 0x44 }
  - { offsetInCU: 0x1475B, offset: 0x1475B, size: 0x8, addend: 0x0, symName: __ZNSt3__122__compressed_pair_elemINS_9allocatorINS_12basic_stringIcNS_11char_traitsIcEENS1_IcEEEEEELi1ELb1EEC2B8ue170006IS7_vEEOT_, symObjAddr: 0x5DF8, symBinAddr: 0x100008944, symSize: 0x18 }
  - { offsetInCU: 0x147A1, offset: 0x147A1, size: 0x8, addend: 0x0, symName: __ZNSt3__119__to_address_helperINS_16reverse_iteratorIPNS_6vectorINS_12basic_stringIcNS_11char_traitsIcEENS_9allocatorIcEEEENS6_IS8_EEEEEEvE6__callB8ue170006ERKSC_, symObjAddr: 0x5E10, symBinAddr: 0x10000895C, symSize: 0x38 }
  - { offsetInCU: 0x147C4, offset: 0x147C4, size: 0x8, addend: 0x0, symName: __ZNKSt3__116reverse_iteratorIPNS_6vectorINS_12basic_stringIcNS_11char_traitsIcEENS_9allocatorIcEEEENS5_IS7_EEEEEptB8ue170006Ev, symObjAddr: 0x5E48, symBinAddr: 0x100008994, symSize: 0x24 }
  - { offsetInCU: 0x147E9, offset: 0x147E9, size: 0x8, addend: 0x0, symName: __ZNSt3__128__exception_guard_exceptionsINS_29_AllocatorDestroyRangeReverseINS_9allocatorINS_6vectorINS_12basic_stringIcNS_11char_traitsIcEENS2_IcEEEENS2_IS8_EEEEEENS_16reverse_iteratorIPSA_EEEEED2B8ue170006Ev, symObjAddr: 0x5E6C, symBinAddr: 0x1000089B8, symSize: 0x50 }
  - { offsetInCU: 0x14812, offset: 0x14812, size: 0x8, addend: 0x0, symName: __ZNKSt3__129_AllocatorDestroyRangeReverseINS_9allocatorINS_6vectorINS_12basic_stringIcNS_11char_traitsIcEENS1_IcEEEENS1_IS7_EEEEEENS_16reverse_iteratorIPS9_EEEclB8ue170006Ev, symObjAddr: 0x5EBC, symBinAddr: 0x100008A08, symSize: 0xB4 }
  - { offsetInCU: 0x14838, offset: 0x14838, size: 0x8, addend: 0x0, symName: __ZNSt3__116reverse_iteratorINS0_IPNS_6vectorINS_12basic_stringIcNS_11char_traitsIcEENS_9allocatorIcEEEENS5_IS7_EEEEEEEC1B8ue170006ESB_, symObjAddr: 0x5FE0, symBinAddr: 0x100008B2C, symSize: 0x3C }
  - { offsetInCU: 0x1486F, offset: 0x1486F, size: 0x8, addend: 0x0, symName: __ZNSt3__116reverse_iteratorINS0_IPNS_6vectorINS_12basic_stringIcNS_11char_traitsIcEENS_9allocatorIcEEEENS5_IS7_EEEEEEEppB8ue170006Ev, symObjAddr: 0x60A0, symBinAddr: 0x100008BEC, symSize: 0x30 }
  - { offsetInCU: 0x14894, offset: 0x14894, size: 0x8, addend: 0x0, symName: __ZNKSt3__116reverse_iteratorINS0_IPNS_6vectorINS_12basic_stringIcNS_11char_traitsIcEENS_9allocatorIcEEEENS5_IS7_EEEEEEE4baseB8ue170006Ev, symObjAddr: 0x60D0, symBinAddr: 0x100008C1C, symSize: 0x24 }
  - { offsetInCU: 0x148BE, offset: 0x148BE, size: 0x8, addend: 0x0, symName: __ZNSt3__119__to_address_helperINS_16reverse_iteratorINS1_IPNS_6vectorINS_12basic_stringIcNS_11char_traitsIcEENS_9allocatorIcEEEENS6_IS8_EEEEEEEEvE6__callB8ue170006ERKSD_, symObjAddr: 0x60F4, symBinAddr: 0x100008C40, symSize: 0x38 }
  - { offsetInCU: 0x148E1, offset: 0x148E1, size: 0x8, addend: 0x0, symName: __ZNKSt3__116reverse_iteratorINS0_IPNS_6vectorINS_12basic_stringIcNS_11char_traitsIcEENS_9allocatorIcEEEENS5_IS7_EEEEEEEptB8ue170006Ev, symObjAddr: 0x612C, symBinAddr: 0x100008C78, symSize: 0x24 }
  - { offsetInCU: 0x14906, offset: 0x14906, size: 0x8, addend: 0x0, symName: __ZNKSt3__116reverse_iteratorINS0_IPNS_6vectorINS_12basic_stringIcNS_11char_traitsIcEENS_9allocatorIcEEEENS5_IS7_EEEEEEEdeB8ue170006Ev, symObjAddr: 0x6150, symBinAddr: 0x100008C9C, symSize: 0x34 }
  - { offsetInCU: 0x14939, offset: 0x14939, size: 0x8, addend: 0x0, symName: __ZNSt3__116reverse_iteratorIPNS_6vectorINS_12basic_stringIcNS_11char_traitsIcEENS_9allocatorIcEEEENS5_IS7_EEEEEmmB8ue170006Ev, symObjAddr: 0x6184, symBinAddr: 0x100008CD0, symSize: 0x20 }
  - { offsetInCU: 0x1495E, offset: 0x1495E, size: 0x8, addend: 0x0, symName: __ZNSt3__116reverse_iteratorINS0_IPNS_6vectorINS_12basic_stringIcNS_11char_traitsIcEENS_9allocatorIcEEEENS5_IS7_EEEEEEEC2B8ue170006ESB_, symObjAddr: 0x61A4, symBinAddr: 0x100008CF0, symSize: 0x2C }
  - { offsetInCU: 0x14995, offset: 0x14995, size: 0x8, addend: 0x0, symName: __ZNSt3__116reverse_iteratorIPNS_6vectorINS_12basic_stringIcNS_11char_traitsIcEENS_9allocatorIcEEEENS5_IS7_EEEEEC2B8ue170006ESA_, symObjAddr: 0x61D0, symBinAddr: 0x100008D1C, symSize: 0x28 }
  - { offsetInCU: 0x149CC, offset: 0x149CC, size: 0x8, addend: 0x0, symName: __ZNSt3__114__split_bufferINS_6vectorINS_12basic_stringIcNS_11char_traitsIcEENS_9allocatorIcEEEENS5_IS7_EEEERNS5_IS9_EEED2Ev, symObjAddr: 0x61F8, symBinAddr: 0x100008D44, symSize: 0x8C }
  - { offsetInCU: 0x149F7, offset: 0x149F7, size: 0x8, addend: 0x0, symName: __ZNSt3__114__split_bufferINS_6vectorINS_12basic_stringIcNS_11char_traitsIcEENS_9allocatorIcEEEENS5_IS7_EEEERNS5_IS9_EEE5clearB8ue170006Ev, symObjAddr: 0x6284, symBinAddr: 0x100008DD0, symSize: 0x28 }
  - { offsetInCU: 0x14A1C, offset: 0x14A1C, size: 0x8, addend: 0x0, symName: __ZNKSt3__114__split_bufferINS_6vectorINS_12basic_stringIcNS_11char_traitsIcEENS_9allocatorIcEEEENS5_IS7_EEEERNS5_IS9_EEE8capacityB8ue170006Ev, symObjAddr: 0x62AC, symBinAddr: 0x100008DF8, symSize: 0x40 }
  - { offsetInCU: 0x14A41, offset: 0x14A41, size: 0x8, addend: 0x0, symName: __ZNSt3__114__split_bufferINS_6vectorINS_12basic_stringIcNS_11char_traitsIcEENS_9allocatorIcEEEENS5_IS7_EEEERNS5_IS9_EEE17__destruct_at_endB8ue170006EPS9_, symObjAddr: 0x62EC, symBinAddr: 0x100008E38, symSize: 0x2C }
  - { offsetInCU: 0x14A73, offset: 0x14A73, size: 0x8, addend: 0x0, symName: __ZNSt3__114__split_bufferINS_6vectorINS_12basic_stringIcNS_11char_traitsIcEENS_9allocatorIcEEEENS5_IS7_EEEERNS5_IS9_EEE17__destruct_at_endB8ue170006EPS9_NS_17integral_constantIbLb0EEE, symObjAddr: 0x6318, symBinAddr: 0x100008E64, symSize: 0x80 }
  - { offsetInCU: 0x14AB3, offset: 0x14AB3, size: 0x8, addend: 0x0, symName: __ZNKSt3__114__split_bufferINS_6vectorINS_12basic_stringIcNS_11char_traitsIcEENS_9allocatorIcEEEENS5_IS7_EEEERNS5_IS9_EEE9__end_capB8ue170006Ev, symObjAddr: 0x6398, symBinAddr: 0x100008EE4, symSize: 0x28 }
  - { offsetInCU: 0x14AD8, offset: 0x14AD8, size: 0x8, addend: 0x0, symName: __ZNKSt3__117__compressed_pairIPNS_6vectorINS_12basic_stringIcNS_11char_traitsIcEENS_9allocatorIcEEEENS5_IS7_EEEERNS5_IS9_EEE5firstB8ue170006Ev, symObjAddr: 0x63C0, symBinAddr: 0x100008F0C, symSize: 0x24 }
  - { offsetInCU: 0x14AFD, offset: 0x14AFD, size: 0x8, addend: 0x0, symName: __ZNSt3__16vectorIbNS_9allocatorIbEEE10__make_refB8ue170006Em, symObjAddr: 0x63E4, symBinAddr: 0x100008F30, symSize: 0x60 }
  - { offsetInCU: 0x14B31, offset: 0x14B31, size: 0x8, addend: 0x0, symName: __ZNSt3__16vectorIbNS_9allocatorIbEEEC2EmRKb, symObjAddr: 0x6444, symBinAddr: 0x100008F90, symSize: 0x90 }
  - { offsetInCU: 0x14B7A, offset: 0x14B7A, size: 0x8, addend: 0x0, symName: __ZNSt3__117__compressed_pairImNS_9allocatorImEEEC1B8ue170006IiNS_18__default_init_tagEEEOT_OT0_, symObjAddr: 0x64D4, symBinAddr: 0x100009020, symSize: 0x3C }
  - { offsetInCU: 0x14BD0, offset: 0x14BD0, size: 0x8, addend: 0x0, symName: __ZNSt3__16vectorIbNS_9allocatorIbEEE18__construct_at_endB8ue170006Emb, symObjAddr: 0x6510, symBinAddr: 0x10000905C, symSize: 0x108 }
  - { offsetInCU: 0x14C24, offset: 0x14C24, size: 0x8, addend: 0x0, symName: __ZNSt3__117__compressed_pairImNS_9allocatorImEEEC2B8ue170006IiNS_18__default_init_tagEEEOT_OT0_, symObjAddr: 0x6618, symBinAddr: 0x100009164, symSize: 0x40 }
  - { offsetInCU: 0x14C7B, offset: 0x14C7B, size: 0x8, addend: 0x0, symName: __ZNSt3__122__compressed_pair_elemINS_9allocatorImEELi1ELb1EEC2B8ue170006ENS_18__default_init_tagE, symObjAddr: 0x6658, symBinAddr: 0x1000091A4, symSize: 0x2C }
  - { offsetInCU: 0x14CAF, offset: 0x14CAF, size: 0x8, addend: 0x0, symName: __ZNSt3__19allocatorImEC2B8ue170006Ev, symObjAddr: 0x6684, symBinAddr: 0x1000091D0, symSize: 0x2C }
  - { offsetInCU: 0x14CD8, offset: 0x14CD8, size: 0x8, addend: 0x0, symName: __ZNSt3__116__non_trivial_ifILb1ENS_9allocatorImEEEC2B8ue170006Ev, symObjAddr: 0x66B0, symBinAddr: 0x1000091FC, symSize: 0x14 }
  - { offsetInCU: 0x14D01, offset: 0x14D01, size: 0x8, addend: 0x0, symName: __ZNSt3__16vectorINS0_IbNS_9allocatorIbEEEENS1_IS3_EEEC2B8ue170006Ev, symObjAddr: 0x6B8C, symBinAddr: 0x1000096D8, symSize: 0x4C }
  - { offsetInCU: 0x14D2A, offset: 0x14D2A, size: 0x8, addend: 0x0, symName: __ZNSt3__117__compressed_pairIPNS_6vectorIbNS_9allocatorIbEEEENS2_IS4_EEEC1B8ue170006IDnNS_18__default_init_tagEEEOT_OT0_, symObjAddr: 0x6BD8, symBinAddr: 0x100009724, symSize: 0x3C }
  - { offsetInCU: 0x14D81, offset: 0x14D81, size: 0x8, addend: 0x0, symName: __ZNSt3__117__compressed_pairIPNS_6vectorIbNS_9allocatorIbEEEENS2_IS4_EEEC2B8ue170006IDnNS_18__default_init_tagEEEOT_OT0_, symObjAddr: 0x6C14, symBinAddr: 0x100009760, symSize: 0x40 }
  - { offsetInCU: 0x14DD8, offset: 0x14DD8, size: 0x8, addend: 0x0, symName: __ZNSt3__122__compressed_pair_elemIPNS_6vectorIbNS_9allocatorIbEEEELi0ELb0EEC2B8ue170006IDnvEEOT_, symObjAddr: 0x6C54, symBinAddr: 0x1000097A0, symSize: 0x1C }
  - { offsetInCU: 0x14E19, offset: 0x14E19, size: 0x8, addend: 0x0, symName: __ZNSt3__122__compressed_pair_elemINS_9allocatorINS_6vectorIbNS1_IbEEEEEELi1ELb1EEC2B8ue170006ENS_18__default_init_tagE, symObjAddr: 0x6C70, symBinAddr: 0x1000097BC, symSize: 0x2C }
  - { offsetInCU: 0x14E4D, offset: 0x14E4D, size: 0x8, addend: 0x0, symName: __ZNSt3__19allocatorINS_6vectorIbNS0_IbEEEEEC2B8ue170006Ev, symObjAddr: 0x6C9C, symBinAddr: 0x1000097E8, symSize: 0x2C }
  - { offsetInCU: 0x14E76, offset: 0x14E76, size: 0x8, addend: 0x0, symName: __ZNSt3__116__non_trivial_ifILb1ENS_9allocatorINS_6vectorIbNS1_IbEEEEEEEC2B8ue170006Ev, symObjAddr: 0x6CC8, symBinAddr: 0x100009814, symSize: 0x14 }
  - { offsetInCU: 0x14E9F, offset: 0x14E9F, size: 0x8, addend: 0x0, symName: __ZNSt3__16vectorINS0_IbNS_9allocatorIbEEEENS1_IS3_EEED2B8ue170006Ev, symObjAddr: 0x6CDC, symBinAddr: 0x100009828, symSize: 0x44 }
  - { offsetInCU: 0x14EC8, offset: 0x14EC8, size: 0x8, addend: 0x0, symName: __ZNSt3__16vectorINS0_IbNS_9allocatorIbEEEENS1_IS3_EEE16__destroy_vectorC1B8ue170006ERS5_, symObjAddr: 0x6D20, symBinAddr: 0x10000986C, symSize: 0x34 }
  - { offsetInCU: 0x14F00, offset: 0x14F00, size: 0x8, addend: 0x0, symName: __ZNSt3__16vectorINS0_IbNS_9allocatorIbEEEENS1_IS3_EEE16__destroy_vectorclB8ue170006Ev, symObjAddr: 0x6D54, symBinAddr: 0x1000098A0, symSize: 0x90 }
  - { offsetInCU: 0x14F25, offset: 0x14F25, size: 0x8, addend: 0x0, symName: __ZNSt3__16vectorINS0_IbNS_9allocatorIbEEEENS1_IS3_EEE16__destroy_vectorC2B8ue170006ERS5_, symObjAddr: 0x6DE4, symBinAddr: 0x100009930, symSize: 0x20 }
  - { offsetInCU: 0x14F5D, offset: 0x14F5D, size: 0x8, addend: 0x0, symName: __ZNSt3__16vectorINS0_IbNS_9allocatorIbEEEENS1_IS3_EEE7__clearB8ue170006Ev, symObjAddr: 0x6E04, symBinAddr: 0x100009950, symSize: 0x28 }
  - { offsetInCU: 0x14F82, offset: 0x14F82, size: 0x8, addend: 0x0, symName: __ZNKSt3__16vectorINS0_IbNS_9allocatorIbEEEENS1_IS3_EEE17__annotate_deleteB8ue170006Ev, symObjAddr: 0x6E2C, symBinAddr: 0x100009978, symSize: 0xD4 }
  - { offsetInCU: 0x14FA7, offset: 0x14FA7, size: 0x8, addend: 0x0, symName: __ZNSt3__116allocator_traitsINS_9allocatorINS_6vectorIbNS1_IbEEEEEEE10deallocateB8ue170006ERS5_PS4_m, symObjAddr: 0x6F00, symBinAddr: 0x100009A4C, symSize: 0x34 }
  - { offsetInCU: 0x14FE9, offset: 0x14FE9, size: 0x8, addend: 0x0, symName: __ZNSt3__16vectorINS0_IbNS_9allocatorIbEEEENS1_IS3_EEE7__allocB8ue170006Ev, symObjAddr: 0x6F34, symBinAddr: 0x100009A80, symSize: 0x28 }
  - { offsetInCU: 0x1500E, offset: 0x1500E, size: 0x8, addend: 0x0, symName: __ZNKSt3__16vectorINS0_IbNS_9allocatorIbEEEENS1_IS3_EEE8capacityB8ue170006Ev, symObjAddr: 0x6F5C, symBinAddr: 0x100009AA8, symSize: 0x40 }
  - { offsetInCU: 0x15033, offset: 0x15033, size: 0x8, addend: 0x0, symName: __ZNSt3__16vectorINS0_IbNS_9allocatorIbEEEENS1_IS3_EEE22__base_destruct_at_endB8ue170006EPS3_, symObjAddr: 0x6F9C, symBinAddr: 0x100009AE8, symSize: 0x8C }
  - { offsetInCU: 0x15076, offset: 0x15076, size: 0x8, addend: 0x0, symName: __ZNSt3__116allocator_traitsINS_9allocatorINS_6vectorIbNS1_IbEEEEEEE7destroyB8ue170006IS4_vEEvRS5_PT_, symObjAddr: 0x7028, symBinAddr: 0x100009B74, symSize: 0x2C }
  - { offsetInCU: 0x150B3, offset: 0x150B3, size: 0x8, addend: 0x0, symName: __ZNSt3__19allocatorINS_6vectorIbNS0_IbEEEEE7destroyB8ue170006EPS3_, symObjAddr: 0x7068, symBinAddr: 0x100009BB4, symSize: 0x28 }
  - { offsetInCU: 0x150E6, offset: 0x150E6, size: 0x8, addend: 0x0, symName: __ZNKSt3__16vectorINS0_IbNS_9allocatorIbEEEENS1_IS3_EEE31__annotate_contiguous_containerB8ue170006EPKvS7_S7_S7_, symObjAddr: 0x7090, symBinAddr: 0x100009BDC, symSize: 0x20 }
  - { offsetInCU: 0x1513B, offset: 0x1513B, size: 0x8, addend: 0x0, symName: __ZNKSt3__16vectorINS0_IbNS_9allocatorIbEEEENS1_IS3_EEE4dataB8ue170006Ev, symObjAddr: 0x70B0, symBinAddr: 0x100009BFC, symSize: 0x28 }
  - { offsetInCU: 0x15160, offset: 0x15160, size: 0x8, addend: 0x0, symName: __ZNKSt3__16vectorINS0_IbNS_9allocatorIbEEEENS1_IS3_EEE4sizeB8ue170006Ev, symObjAddr: 0x70D8, symBinAddr: 0x100009C24, symSize: 0x28 }
  - { offsetInCU: 0x15185, offset: 0x15185, size: 0x8, addend: 0x0, symName: __ZNSt3__19allocatorINS_6vectorIbNS0_IbEEEEE10deallocateB8ue170006EPS3_m, symObjAddr: 0x7100, symBinAddr: 0x100009C4C, symSize: 0x44 }
  - { offsetInCU: 0x151C6, offset: 0x151C6, size: 0x8, addend: 0x0, symName: __ZNSt3__117__compressed_pairIPNS_6vectorIbNS_9allocatorIbEEEENS2_IS4_EEE6secondB8ue170006Ev, symObjAddr: 0x7144, symBinAddr: 0x100009C90, symSize: 0x24 }
  - { offsetInCU: 0x151EB, offset: 0x151EB, size: 0x8, addend: 0x0, symName: __ZNSt3__122__compressed_pair_elemINS_9allocatorINS_6vectorIbNS1_IbEEEEEELi1ELb1EE5__getB8ue170006Ev, symObjAddr: 0x7168, symBinAddr: 0x100009CB4, symSize: 0x14 }
  - { offsetInCU: 0x15210, offset: 0x15210, size: 0x8, addend: 0x0, symName: __ZNKSt3__16vectorINS0_IbNS_9allocatorIbEEEENS1_IS3_EEE9__end_capB8ue170006Ev, symObjAddr: 0x717C, symBinAddr: 0x100009CC8, symSize: 0x28 }
  - { offsetInCU: 0x15235, offset: 0x15235, size: 0x8, addend: 0x0, symName: __ZNKSt3__117__compressed_pairIPNS_6vectorIbNS_9allocatorIbEEEENS2_IS4_EEE5firstB8ue170006Ev, symObjAddr: 0x71A4, symBinAddr: 0x100009CF0, symSize: 0x24 }
  - { offsetInCU: 0x1525A, offset: 0x1525A, size: 0x8, addend: 0x0, symName: __ZNKSt3__122__compressed_pair_elemIPNS_6vectorIbNS_9allocatorIbEEEELi0ELb0EE5__getB8ue170006Ev, symObjAddr: 0x71C8, symBinAddr: 0x100009D14, symSize: 0x14 }
  - { offsetInCU: 0x1527F, offset: 0x1527F, size: 0x8, addend: 0x0, symName: __ZNSt3__16vectorINS0_INS_12basic_stringIcNS_11char_traitsIcEENS_9allocatorIcEEEENS4_IS6_EEEENS4_IS8_EEE11__make_iterB8ue170006EPS8_, symObjAddr: 0x71DC, symBinAddr: 0x100009D28, symSize: 0x30 }
  - { offsetInCU: 0x152B3, offset: 0x152B3, size: 0x8, addend: 0x0, symName: __ZNSt3__111__wrap_iterIPNS_6vectorINS_12basic_stringIcNS_11char_traitsIcEENS_9allocatorIcEEEENS5_IS7_EEEEEC1B8ue170006ESA_, symObjAddr: 0x720C, symBinAddr: 0x100009D58, symSize: 0x34 }
  - { offsetInCU: 0x152EA, offset: 0x152EA, size: 0x8, addend: 0x0, symName: __ZNSt3__111__wrap_iterIPNS_6vectorINS_12basic_stringIcNS_11char_traitsIcEENS_9allocatorIcEEEENS5_IS7_EEEEEC2B8ue170006ESA_, symObjAddr: 0x7240, symBinAddr: 0x100009D8C, symSize: 0x20 }
  - { offsetInCU: 0x15321, offset: 0x15321, size: 0x8, addend: 0x0, symName: __ZNSt3__16vectorINS_12basic_stringIcNS_11char_traitsIcEENS_9allocatorIcEEEENS4_IS6_EEEC2ERKS8_, symObjAddr: 0x7260, symBinAddr: 0x100009DAC, symSize: 0x94 }
  - { offsetInCU: 0x1535B, offset: 0x1535B, size: 0x8, addend: 0x0, symName: __ZNSt3__116allocator_traitsINS_9allocatorINS_12basic_stringIcNS_11char_traitsIcEENS1_IcEEEEEEE37select_on_container_copy_constructionB8ue170006IS7_vvEES7_RKS7_, symObjAddr: 0x72F4, symBinAddr: 0x100009E40, symSize: 0x10 }
  - { offsetInCU: 0x1538A, offset: 0x1538A, size: 0x8, addend: 0x0, symName: __ZNSt3__16vectorINS_12basic_stringIcNS_11char_traitsIcEENS_9allocatorIcEEEENS4_IS6_EEE16__init_with_sizeB8ue170006IPS6_SA_EEvT_T0_m, symObjAddr: 0x7304, symBinAddr: 0x100009E50, symSize: 0xB8 }
  - { offsetInCU: 0x153FD, offset: 0x153FD, size: 0x8, addend: 0x0, symName: __ZNSt3__16vectorINS_12basic_stringIcNS_11char_traitsIcEENS_9allocatorIcEEEENS4_IS6_EEE11__vallocateB8ue170006Em, symObjAddr: 0x73FC, symBinAddr: 0x100009F48, symSize: 0xB4 }
  - { offsetInCU: 0x1543F, offset: 0x1543F, size: 0x8, addend: 0x0, symName: __ZNSt3__16vectorINS_12basic_stringIcNS_11char_traitsIcEENS_9allocatorIcEEEENS4_IS6_EEE18__construct_at_endIPS6_SA_EEvT_T0_m, symObjAddr: 0x74B0, symBinAddr: 0x100009FFC, symSize: 0x8C }
  - { offsetInCU: 0x154B4, offset: 0x154B4, size: 0x8, addend: 0x0, symName: __ZNSt3__128__exception_guard_exceptionsINS_6vectorINS_12basic_stringIcNS_11char_traitsIcEENS_9allocatorIcEEEENS5_IS7_EEE16__destroy_vectorEE10__completeB8ue170006Ev, symObjAddr: 0x753C, symBinAddr: 0x10000A088, symSize: 0x1C }
  - { offsetInCU: 0x154D9, offset: 0x154D9, size: 0x8, addend: 0x0, symName: __ZNSt3__128__exception_guard_exceptionsINS_6vectorINS_12basic_stringIcNS_11char_traitsIcEENS_9allocatorIcEEEENS5_IS7_EEE16__destroy_vectorEED1B8ue170006Ev, symObjAddr: 0x7558, symBinAddr: 0x10000A0A4, symSize: 0x2C }
  - { offsetInCU: 0x15502, offset: 0x15502, size: 0x8, addend: 0x0, symName: __ZNSt3__128__exception_guard_exceptionsINS_6vectorINS_12basic_stringIcNS_11char_traitsIcEENS_9allocatorIcEEEENS5_IS7_EEE16__destroy_vectorEEC1B8ue170006ESA_, symObjAddr: 0x7584, symBinAddr: 0x10000A0D0, symSize: 0x34 }
  - { offsetInCU: 0x15539, offset: 0x15539, size: 0x8, addend: 0x0, symName: __ZNSt3__128__exception_guard_exceptionsINS_6vectorINS_12basic_stringIcNS_11char_traitsIcEENS_9allocatorIcEEEENS5_IS7_EEE16__destroy_vectorEEC2B8ue170006ESA_, symObjAddr: 0x75B8, symBinAddr: 0x10000A104, symSize: 0x24 }
  - { offsetInCU: 0x1558E, offset: 0x1558E, size: 0x8, addend: 0x0, symName: __ZNSt3__14pairIPNS_12basic_stringIcNS_11char_traitsIcEENS_9allocatorIcEEEES7_EC1B8ue170006IS7_S7_LPv0EEEOT_OT0_, symObjAddr: 0x7848, symBinAddr: 0x10000A394, symSize: 0x3C }
  - { offsetInCU: 0x155EB, offset: 0x155EB, size: 0x8, addend: 0x0, symName: __ZNSt3__14pairIPNS_12basic_stringIcNS_11char_traitsIcEENS_9allocatorIcEEEES7_EC2B8ue170006IS7_S7_LPv0EEEOT_OT0_, symObjAddr: 0x7884, symBinAddr: 0x10000A3D0, symSize: 0x34 }
  - { offsetInCU: 0x15648, offset: 0x15648, size: 0x8, addend: 0x0, symName: __ZNSt3__129_AllocatorDestroyRangeReverseINS_9allocatorINS_12basic_stringIcNS_11char_traitsIcEENS1_IcEEEEEEPS6_EC1B8ue170006ERS7_RS8_SB_, symObjAddr: 0x7904, symBinAddr: 0x10000A450, symSize: 0x44 }
  - { offsetInCU: 0x1569E, offset: 0x1569E, size: 0x8, addend: 0x0, symName: __ZNSt3__116allocator_traitsINS_9allocatorINS_12basic_stringIcNS_11char_traitsIcEENS1_IcEEEEEEE9constructB8ue170006IS6_JRS6_EvEEvRS7_PT_DpOT0_, symObjAddr: 0x7948, symBinAddr: 0x10000A494, symSize: 0x34 }
  - { offsetInCU: 0x156F5, offset: 0x156F5, size: 0x8, addend: 0x0, symName: __ZNSt3__128__exception_guard_exceptionsINS_29_AllocatorDestroyRangeReverseINS_9allocatorINS_12basic_stringIcNS_11char_traitsIcEENS2_IcEEEEEEPS7_EEE10__completeB8ue170006Ev, symObjAddr: 0x797C, symBinAddr: 0x10000A4C8, symSize: 0x1C }
  - { offsetInCU: 0x1571A, offset: 0x1571A, size: 0x8, addend: 0x0, symName: __ZNSt3__128__exception_guard_exceptionsINS_29_AllocatorDestroyRangeReverseINS_9allocatorINS_12basic_stringIcNS_11char_traitsIcEENS2_IcEEEEEEPS7_EEED1B8ue170006Ev, symObjAddr: 0x7998, symBinAddr: 0x10000A4E4, symSize: 0x2C }
  - { offsetInCU: 0x15743, offset: 0x15743, size: 0x8, addend: 0x0, symName: __ZNSt3__128__exception_guard_exceptionsINS_29_AllocatorDestroyRangeReverseINS_9allocatorINS_12basic_stringIcNS_11char_traitsIcEENS2_IcEEEEEEPS7_EEEC1B8ue170006ESA_, symObjAddr: 0x79C4, symBinAddr: 0x10000A510, symSize: 0x34 }
  - { offsetInCU: 0x1577B, offset: 0x1577B, size: 0x8, addend: 0x0, symName: __ZNSt3__128__exception_guard_exceptionsINS_29_AllocatorDestroyRangeReverseINS_9allocatorINS_12basic_stringIcNS_11char_traitsIcEENS2_IcEEEEEEPS7_EEEC2B8ue170006ESA_, symObjAddr: 0x79F8, symBinAddr: 0x10000A544, symSize: 0x30 }
  - { offsetInCU: 0x157B3, offset: 0x157B3, size: 0x8, addend: 0x0, symName: __ZNSt3__129_AllocatorDestroyRangeReverseINS_9allocatorINS_12basic_stringIcNS_11char_traitsIcEENS1_IcEEEEEEPS6_EC2B8ue170006ERS7_RS8_SB_, symObjAddr: 0x7A28, symBinAddr: 0x10000A574, symSize: 0x38 }
  - { offsetInCU: 0x15809, offset: 0x15809, size: 0x8, addend: 0x0, symName: __ZNSt3__19allocatorINS_12basic_stringIcNS_11char_traitsIcEENS0_IcEEEEE9constructB8ue170006IS5_JRS5_EEEvPT_DpOT0_, symObjAddr: 0x7A60, symBinAddr: 0x10000A5AC, symSize: 0x30 }
  - { offsetInCU: 0x1585E, offset: 0x1585E, size: 0x8, addend: 0x0, symName: __ZNSt3__128__exception_guard_exceptionsINS_29_AllocatorDestroyRangeReverseINS_9allocatorINS_12basic_stringIcNS_11char_traitsIcEENS2_IcEEEEEEPS7_EEED2B8ue170006Ev, symObjAddr: 0x7A90, symBinAddr: 0x10000A5DC, symSize: 0x50 }
  - { offsetInCU: 0x15887, offset: 0x15887, size: 0x8, addend: 0x0, symName: __ZNKSt3__129_AllocatorDestroyRangeReverseINS_9allocatorINS_12basic_stringIcNS_11char_traitsIcEENS1_IcEEEEEEPS6_EclB8ue170006Ev, symObjAddr: 0x7AE0, symBinAddr: 0x10000A62C, symSize: 0x68 }
  - { offsetInCU: 0x158AC, offset: 0x158AC, size: 0x8, addend: 0x0, symName: __ZNSt3__118__unwrap_iter_implIPNS_12basic_stringIcNS_11char_traitsIcEENS_9allocatorIcEEEELb1EE8__unwrapB8ue170006ES7_, symObjAddr: 0x7BB8, symBinAddr: 0x10000A704, symSize: 0x24 }
  - { offsetInCU: 0x158CF, offset: 0x158CF, size: 0x8, addend: 0x0, symName: __ZNSt3__118__unwrap_iter_implIPNS_12basic_stringIcNS_11char_traitsIcEENS_9allocatorIcEEEELb1EE8__rewrapB8ue170006ES7_S7_, symObjAddr: 0x7BDC, symBinAddr: 0x10000A728, symSize: 0x58 }
  - { offsetInCU: 0x15900, offset: 0x15900, size: 0x8, addend: 0x0, symName: __ZNSt3__128__exception_guard_exceptionsINS_6vectorINS_12basic_stringIcNS_11char_traitsIcEENS_9allocatorIcEEEENS5_IS7_EEE16__destroy_vectorEED2B8ue170006Ev, symObjAddr: 0x7C34, symBinAddr: 0x10000A780, symSize: 0x48 }
  - { offsetInCU: 0x15929, offset: 0x15929, size: 0x8, addend: 0x0, symName: __ZNSt3__16vectorINS_12basic_stringIcNS_11char_traitsIcEENS_9allocatorIcEEEENS4_IS6_EEE11__make_iterB8ue170006EPS6_, symObjAddr: 0x7C7C, symBinAddr: 0x10000A7C8, symSize: 0x30 }
  - { offsetInCU: 0x1595D, offset: 0x1595D, size: 0x8, addend: 0x0, symName: __ZNSt3__111__wrap_iterIPNS_12basic_stringIcNS_11char_traitsIcEENS_9allocatorIcEEEEEC1B8ue170006ES7_, symObjAddr: 0x7CAC, symBinAddr: 0x10000A7F8, symSize: 0x34 }
  - { offsetInCU: 0x15994, offset: 0x15994, size: 0x8, addend: 0x0, symName: __ZNSt3__111__wrap_iterIPNS_12basic_stringIcNS_11char_traitsIcEENS_9allocatorIcEEEEEC2B8ue170006ES7_, symObjAddr: 0x7CE0, symBinAddr: 0x10000A82C, symSize: 0x20 }
  - { offsetInCU: 0x159CB, offset: 0x159CB, size: 0x8, addend: 0x0, symName: __ZNKSt3__112basic_stringIcNS_11char_traitsIcEENS_9allocatorIcEEE4dataB8ue170006Ev, symObjAddr: 0x7EEC, symBinAddr: 0x10000AA38, symSize: 0x28 }
  - { offsetInCU: 0x159F0, offset: 0x159F0, size: 0x8, addend: 0x0, symName: __ZNKSt3__112basic_stringIcNS_11char_traitsIcEENS_9allocatorIcEEE4sizeB8ue170006Ev, symObjAddr: 0x7F14, symBinAddr: 0x10000AA60, symSize: 0x54 }
  - { offsetInCU: 0x15A33, offset: 0x15A33, size: 0x8, addend: 0x0, symName: __ZNKSt3__113basic_ostreamIcNS_11char_traitsIcEEE6sentrycvbB8ue170006Ev, symObjAddr: 0x7F68, symBinAddr: 0x10000AAB4, symSize: 0x1C }
  - { offsetInCU: 0x15A58, offset: 0x15A58, size: 0x8, addend: 0x0, symName: __ZNSt3__119ostreambuf_iteratorIcNS_11char_traitsIcEEEC1B8ue170006ERNS_13basic_ostreamIcS2_EE, symObjAddr: 0x81C4, symBinAddr: 0x10000AD10, symSize: 0x34 }
  - { offsetInCU: 0x15A8F, offset: 0x15A8F, size: 0x8, addend: 0x0, symName: __ZNKSt3__18ios_base5flagsB8ue170006Ev, symObjAddr: 0x81F8, symBinAddr: 0x10000AD44, symSize: 0x18 }
  - { offsetInCU: 0x15AB5, offset: 0x15AB5, size: 0x8, addend: 0x0, symName: __ZNKSt3__19basic_iosIcNS_11char_traitsIcEEE4fillB8ue170006Ev, symObjAddr: 0x8210, symBinAddr: 0x10000AD5C, symSize: 0x64 }
  - { offsetInCU: 0x15ADC, offset: 0x15ADC, size: 0x8, addend: 0x0, symName: __ZNKSt3__119ostreambuf_iteratorIcNS_11char_traitsIcEEE6failedB8ue170006Ev, symObjAddr: 0x8274, symBinAddr: 0x10000ADC0, symSize: 0x24 }
  - { offsetInCU: 0x15B01, offset: 0x15B01, size: 0x8, addend: 0x0, symName: __ZNSt3__19basic_iosIcNS_11char_traitsIcEEE8setstateB8ue170006Ej, symObjAddr: 0x8298, symBinAddr: 0x10000ADE4, symSize: 0x2C }
  - { offsetInCU: 0x15B35, offset: 0x15B35, size: 0x8, addend: 0x0, symName: __ZNKSt3__18ios_base5widthB8ue170006Ev, symObjAddr: 0x82C4, symBinAddr: 0x10000AE10, symSize: 0x18 }
  - { offsetInCU: 0x15B5C, offset: 0x15B5C, size: 0x8, addend: 0x0, symName: __ZNSt3__115basic_streambufIcNS_11char_traitsIcEEE5sputnB8ue170006EPKcl, symObjAddr: 0x82DC, symBinAddr: 0x10000AE28, symSize: 0x3C }
  - { offsetInCU: 0x15B9D, offset: 0x15B9D, size: 0x8, addend: 0x0, symName: __ZNSt3__112basic_stringIcNS_11char_traitsIcEENS_9allocatorIcEEEC1B8ue170006Emc, symObjAddr: 0x8318, symBinAddr: 0x10000AE64, symSize: 0x3C }
  - { offsetInCU: 0x15BE4, offset: 0x15BE4, size: 0x8, addend: 0x0, symName: __ZNSt3__18ios_base5widthB8ue170006El, symObjAddr: 0x8354, symBinAddr: 0x10000AEA0, symSize: 0x2C }
  - { offsetInCU: 0x15C29, offset: 0x15C29, size: 0x8, addend: 0x0, symName: __ZNSt3__112basic_stringIcNS_11char_traitsIcEENS_9allocatorIcEEEC2B8ue170006Emc, symObjAddr: 0x8380, symBinAddr: 0x10000AECC, symSize: 0x4C }
  - { offsetInCU: 0x15C70, offset: 0x15C70, size: 0x8, addend: 0x0, symName: __ZNSt3__119ostreambuf_iteratorIcNS_11char_traitsIcEEEC2B8ue170006ERNS_13basic_ostreamIcS2_EE, symObjAddr: 0x83CC, symBinAddr: 0x10000AF18, symSize: 0x54 }
  - { offsetInCU: 0x15CA6, offset: 0x15CA6, size: 0x8, addend: 0x0, symName: __ZNKSt3__19basic_iosIcNS_11char_traitsIcEEE5rdbufB8ue170006Ev, symObjAddr: 0x8420, symBinAddr: 0x10000AF6C, symSize: 0x24 }
  - { offsetInCU: 0x15CCD, offset: 0x15CCD, size: 0x8, addend: 0x0, symName: __ZNKSt3__18ios_base5rdbufB8ue170006Ev, symObjAddr: 0x8444, symBinAddr: 0x10000AF90, symSize: 0x18 }
  - { offsetInCU: 0x15CF2, offset: 0x15CF2, size: 0x8, addend: 0x0, symName: __ZNSt3__111char_traitsIcE11eq_int_typeB8ue170006Eii, symObjAddr: 0x845C, symBinAddr: 0x10000AFA8, symSize: 0x28 }
  - { offsetInCU: 0x15D25, offset: 0x15D25, size: 0x8, addend: 0x0, symName: __ZNSt3__111char_traitsIcE3eofB8ue170006Ev, symObjAddr: 0x8484, symBinAddr: 0x10000AFD0, symSize: 0x8 }
  - { offsetInCU: 0x15D38, offset: 0x15D38, size: 0x8, addend: 0x0, symName: __ZNKSt3__19basic_iosIcNS_11char_traitsIcEEE5widenB8ue170006Ec, symObjAddr: 0x848C, symBinAddr: 0x10000AFD8, symSize: 0x84 }
  - { offsetInCU: 0x15DA5, offset: 0x15DA5, size: 0x8, addend: 0x0, symName: __ZNKSt3__15ctypeIcE5widenB8ue170006Ec, symObjAddr: 0x853C, symBinAddr: 0x10000B088, symSize: 0x38 }
  - { offsetInCU: 0x15DD8, offset: 0x15DD8, size: 0x8, addend: 0x0, symName: __ZNSt3__18ios_base8setstateB8ue170006Ej, symObjAddr: 0x8574, symBinAddr: 0x10000B0C0, symSize: 0x34 }
  - { offsetInCU: 0x15E0E, offset: 0x15E0E, size: 0x8, addend: 0x0, symName: __ZNKSt3__112basic_stringIcNS_11char_traitsIcEENS_9allocatorIcEEE13__get_pointerB8ue170006Ev, symObjAddr: 0x85BC, symBinAddr: 0x10000B108, symSize: 0x54 }
  - { offsetInCU: 0x15E33, offset: 0x15E33, size: 0x8, addend: 0x0, symName: __ZNKSt3__112basic_stringIcNS_11char_traitsIcEENS_9allocatorIcEEE9__is_longB8ue170006Ev, symObjAddr: 0x8610, symBinAddr: 0x10000B15C, symSize: 0x38 }
  - { offsetInCU: 0x15E58, offset: 0x15E58, size: 0x8, addend: 0x0, symName: __ZNKSt3__112basic_stringIcNS_11char_traitsIcEENS_9allocatorIcEEE18__get_long_pointerB8ue170006Ev, symObjAddr: 0x8648, symBinAddr: 0x10000B194, symSize: 0x28 }
  - { offsetInCU: 0x15E7D, offset: 0x15E7D, size: 0x8, addend: 0x0, symName: __ZNKSt3__112basic_stringIcNS_11char_traitsIcEENS_9allocatorIcEEE19__get_short_pointerB8ue170006Ev, symObjAddr: 0x8670, symBinAddr: 0x10000B1BC, symSize: 0x28 }
  - { offsetInCU: 0x15EA2, offset: 0x15EA2, size: 0x8, addend: 0x0, symName: __ZNKSt3__117__compressed_pairINS_12basic_stringIcNS_11char_traitsIcEENS_9allocatorIcEEE5__repES5_E5firstB8ue170006Ev, symObjAddr: 0x8698, symBinAddr: 0x10000B1E4, symSize: 0x24 }
  - { offsetInCU: 0x15EC7, offset: 0x15EC7, size: 0x8, addend: 0x0, symName: __ZNKSt3__122__compressed_pair_elemINS_12basic_stringIcNS_11char_traitsIcEENS_9allocatorIcEEE5__repELi0ELb0EE5__getB8ue170006Ev, symObjAddr: 0x86BC, symBinAddr: 0x10000B208, symSize: 0x14 }
  - { offsetInCU: 0x15EEC, offset: 0x15EEC, size: 0x8, addend: 0x0, symName: __ZNSt3__114pointer_traitsIPKcE10pointer_toB8ue170006ERS1_, symObjAddr: 0x86D0, symBinAddr: 0x10000B21C, symSize: 0x14 }
  - { offsetInCU: 0x15F0F, offset: 0x15F0F, size: 0x8, addend: 0x0, symName: __ZNKSt3__112basic_stringIcNS_11char_traitsIcEENS_9allocatorIcEEE15__get_long_sizeB8ue170006Ev, symObjAddr: 0x86E4, symBinAddr: 0x10000B230, symSize: 0x28 }
  - { offsetInCU: 0x15F34, offset: 0x15F34, size: 0x8, addend: 0x0, symName: __ZNKSt3__112basic_stringIcNS_11char_traitsIcEENS_9allocatorIcEEE16__get_short_sizeB8ue170006Ev, symObjAddr: 0x870C, symBinAddr: 0x10000B258, symSize: 0x34 }
...
